	.file	"jump_void.cpp"
	.text
.Ltext0:
	.section	.text._ZNSt9exceptionC2Ev,"axG",@progbits,_ZNSt9exceptionC5Ev,comdat
	.align 2
	.weak	_ZNSt9exceptionC2Ev
	.type	_ZNSt9exceptionC2Ev, @function
_ZNSt9exceptionC2Ev:
.LFB25:
	.file 1 "/usr/include/c++/7/bits/exception.h"
	.loc 1 63 0
	.cfi_startproc
	pushq	%rbp
	.cfi_def_cfa_offset 16
	.cfi_offset 6, -16
	movq	%rsp, %rbp
	.cfi_def_cfa_register 6
	movq	%rdi, -8(%rbp)
.LBB2:
	.loc 1 63 0
	leaq	16+_ZTVSt9exception(%rip), %rdx
	movq	-8(%rbp), %rax
	movq	%rdx, (%rax)
.LBE2:
	nop
	popq	%rbp
	.cfi_def_cfa 7, 8
	ret
	.cfi_endproc
.LFE25:
	.size	_ZNSt9exceptionC2Ev, .-_ZNSt9exceptionC2Ev
	.weak	_ZNSt9exceptionC1Ev
	.set	_ZNSt9exceptionC1Ev,_ZNSt9exceptionC2Ev
	.section	.text._ZNSt9bad_allocC2Ev,"axG",@progbits,_ZNSt9bad_allocC5Ev,comdat
	.align 2
	.weak	_ZNSt9bad_allocC2Ev
	.type	_ZNSt9bad_allocC2Ev, @function
_ZNSt9bad_allocC2Ev:
.LFB45:
	.file 2 "/usr/include/c++/7/new"
	.loc 2 57 0
	.cfi_startproc
	pushq	%rbp
	.cfi_def_cfa_offset 16
	.cfi_offset 6, -16
	movq	%rsp, %rbp
	.cfi_def_cfa_register 6
	subq	$16, %rsp
	movq	%rdi, -8(%rbp)
.LBB3:
	.loc 2 57 0
	movq	-8(%rbp), %rax
	movq	%rax, %rdi
	call	_ZNSt9exceptionC2Ev
	leaq	16+_ZTVSt9bad_alloc(%rip), %rdx
	movq	-8(%rbp), %rax
	movq	%rdx, (%rax)
.LBE3:
	nop
	leave
	.cfi_def_cfa 7, 8
	ret
	.cfi_endproc
.LFE45:
	.size	_ZNSt9bad_allocC2Ev, .-_ZNSt9bad_allocC2Ev
	.weak	_ZNSt9bad_allocC1Ev
	.set	_ZNSt9bad_allocC1Ev,_ZNSt9bad_allocC2Ev
	.section	.text._ZnwmPv,"axG",@progbits,_ZnwmPv,comdat
	.weak	_ZnwmPv
	.type	_ZnwmPv, @function
_ZnwmPv:
.LFB50:
	.loc 2 169 0
	.cfi_startproc
	pushq	%rbp
	.cfi_def_cfa_offset 16
	.cfi_offset 6, -16
	movq	%rsp, %rbp
	.cfi_def_cfa_register 6
	movq	%rdi, -8(%rbp)
	movq	%rsi, -16(%rbp)
	.loc 2 169 0
	movq	-16(%rbp), %rax
	popq	%rbp
	.cfi_def_cfa 7, 8
	ret
	.cfi_endproc
.LFE50:
	.size	_ZnwmPv, .-_ZnwmPv
	.section	.rodata
	.type	_ZStL19piecewise_construct, @object
	.size	_ZStL19piecewise_construct, 1
_ZStL19piecewise_construct:
	.zero	1
	.local	_ZStL8__ioinit
	.comm	_ZStL8__ioinit,1,1
	.align 8
	.type	_ZL15cache_alignment, @object
	.size	_ZL15cache_alignment, 8
_ZL15cache_alignment:
	.quad	64
	.align 8
	.type	_ZL16cacheline_length, @object
	.size	_ZL16cacheline_length, 8
_ZL16cacheline_length:
	.quad	64
	.align 8
	.type	_ZL15prefetch_stride, @object
	.size	_ZL15prefetch_stride, 8
_ZL15prefetch_stride:
	.quad	256
	.type	_ZStL13allocator_arg, @object
	.size	_ZStL13allocator_arg, 1
_ZStL13allocator_arg:
	.zero	1
	.type	_ZStL6ignore, @object
	.size	_ZStL6ignore, 1
_ZStL6ignore:
	.zero	1
	.align 4
	.type	_ZN9__gnu_cxxL21__default_lock_policyE, @object
	.size	_ZN9__gnu_cxxL21__default_lock_policyE, 4
_ZN9__gnu_cxxL21__default_lock_policyE:
	.long	2
	.section	.text._ZN5boost7context6detail13forced_unwindC2EPv,"axG",@progbits,_ZN5boost7context6detail13forced_unwindC5EPv,comdat
	.align 2
	.weak	_ZN5boost7context6detail13forced_unwindC2EPv
	.type	_ZN5boost7context6detail13forced_unwindC2EPv, @function
_ZN5boost7context6detail13forced_unwindC2EPv:
.LFB2838:
	.file 3 "/usr/local/include/boost/context/detail/exception.hpp"
	.loc 3 31 0
	.cfi_startproc
	pushq	%rbp
	.cfi_def_cfa_offset 16
	.cfi_offset 6, -16
	movq	%rsp, %rbp
	.cfi_def_cfa_register 6
	movq	%rdi, -8(%rbp)
	movq	%rsi, -16(%rbp)
.LBB4:
	.loc 3 32 0
	movq	-8(%rbp), %rax
	movq	-16(%rbp), %rdx
	movq	%rdx, (%rax)
	movq	-8(%rbp), %rax
	movb	$0, 8(%rax)
.LBE4:
	.loc 3 33 0
	nop
	popq	%rbp
	.cfi_def_cfa 7, 8
	ret
	.cfi_endproc
.LFE2838:
	.size	_ZN5boost7context6detail13forced_unwindC2EPv, .-_ZN5boost7context6detail13forced_unwindC2EPv
	.weak	_ZN5boost7context6detail13forced_unwindC1EPv
	.set	_ZN5boost7context6detail13forced_unwindC1EPv,_ZN5boost7context6detail13forced_unwindC2EPv
	.section	.rodata
	.align 8
.LC0:
	.string	"/usr/local/include/boost/context/detail/exception.hpp"
.LC1:
	.string	"caught"
	.section	.text._ZN5boost7context6detail13forced_unwindD2Ev,"axG",@progbits,_ZN5boost7context6detail13forced_unwindD5Ev,comdat
	.align 2
	.weak	_ZN5boost7context6detail13forced_unwindD2Ev
	.type	_ZN5boost7context6detail13forced_unwindD2Ev, @function
_ZN5boost7context6detail13forced_unwindD2Ev:
.LFB2841:
	.loc 3 36 0
	.cfi_startproc
	pushq	%rbp
	.cfi_def_cfa_offset 16
	.cfi_offset 6, -16
	movq	%rsp, %rbp
	.cfi_def_cfa_register 6
	subq	$16, %rsp
	movq	%rdi, -8(%rbp)
.LBB5:
	.loc 3 37 0
	movq	-8(%rbp), %rax
	movzbl	8(%rax), %eax
	testb	%al, %al
	jne	.L8
	.loc 3 37 0 is_stmt 0 discriminator 1
	leaq	_ZZN5boost7context6detail13forced_unwindD4EvE19__PRETTY_FUNCTION__(%rip), %rcx
	movl	$37, %edx
	leaq	.LC0(%rip), %rsi
	leaq	.LC1(%rip), %rdi
	call	__assert_fail@PLT
.L8:
.LBE5:
	.loc 3 38 0 is_stmt 1
	nop
	leave
	.cfi_def_cfa 7, 8
	ret
	.cfi_endproc
.LFE2841:
	.size	_ZN5boost7context6detail13forced_unwindD2Ev, .-_ZN5boost7context6detail13forced_unwindD2Ev
	.weak	_ZN5boost7context6detail13forced_unwindD1Ev
	.set	_ZN5boost7context6detail13forced_unwindD1Ev,_ZN5boost7context6detail13forced_unwindD2Ev
	.section	.rodata
	.type	_ZN5boost7contextL14exec_ontop_argE, @object
	.size	_ZN5boost7contextL14exec_ontop_argE, 1
_ZN5boost7contextL14exec_ontop_argE:
	.zero	1
	.section	.text._ZN5boost7context6detail12fiber_unwindENS1_10transfer_tE,"axG",@progbits,_ZN5boost7context6detail12fiber_unwindENS1_10transfer_tE,comdat
	.weak	_ZN5boost7context6detail12fiber_unwindENS1_10transfer_tE
	.type	_ZN5boost7context6detail12fiber_unwindENS1_10transfer_tE, @function
_ZN5boost7context6detail12fiber_unwindENS1_10transfer_tE:
.LFB2862:
	.file 4 "/usr/local/include/boost/context/fiber_fcontext.hpp"
	.loc 4 57 0
	.cfi_startproc
	pushq	%rbp
	.cfi_def_cfa_offset 16
	.cfi_offset 6, -16
	movq	%rsp, %rbp
	.cfi_def_cfa_register 6
	pushq	%rbx
	subq	$24, %rsp
	.cfi_offset 3, -24
	movq	%rdi, %rax
	movq	%rsi, %rcx
	movq	%rcx, %rdx
	movq	%rax, -32(%rbp)
	movq	%rdx, -24(%rbp)
	.loc 4 58 0
	movl	$16, %edi
	call	__cxa_allocate_exception@PLT
	movq	%rax, %rbx
	movq	-32(%rbp), %rax
	movq	%rax, %rsi
	movq	%rbx, %rdi
	call	_ZN5boost7context6detail13forced_unwindC1EPv
	leaq	_ZN5boost7context6detail13forced_unwindD1Ev(%rip), %rdx
	leaq	_ZTIN5boost7context6detail13forced_unwindE(%rip), %rsi
	movq	%rbx, %rdi
	call	__cxa_throw@PLT
	.cfi_endproc
.LFE2862:
	.size	_ZN5boost7context6detail12fiber_unwindENS1_10transfer_tE, .-_ZN5boost7context6detail12fiber_unwindENS1_10transfer_tE
	.section	.text._ZN5boost7context5fiberC2EPv,"axG",@progbits,_ZN5boost7context5fiberC5EPv,comdat
	.align 2
	.weak	_ZN5boost7context5fiberC2EPv
	.type	_ZN5boost7context5fiberC2EPv, @function
_ZN5boost7context5fiberC2EPv:
.LFB2873:
	.loc 4 221 0
	.cfi_startproc
	pushq	%rbp
	.cfi_def_cfa_offset 16
	.cfi_offset 6, -16
	movq	%rsp, %rbp
	.cfi_def_cfa_register 6
	movq	%rdi, -8(%rbp)
	movq	%rsi, -16(%rbp)
.LBB6:
	.loc 4 222 0
	movq	-8(%rbp), %rax
	movq	-16(%rbp), %rdx
	movq	%rdx, (%rax)
.LBE6:
	.loc 4 223 0
	nop
	popq	%rbp
	.cfi_def_cfa 7, 8
	ret
	.cfi_endproc
.LFE2873:
	.size	_ZN5boost7context5fiberC2EPv, .-_ZN5boost7context5fiberC2EPv
	.weak	_ZN5boost7context5fiberC1EPv
	.set	_ZN5boost7context5fiberC1EPv,_ZN5boost7context5fiberC2EPv
	.section	.text._ZN5boost7context5fiberD2Ev,"axG",@progbits,_ZN5boost7context5fiberD5Ev,comdat
	.align 2
	.weak	_ZN5boost7context5fiberD2Ev
	.type	_ZN5boost7context5fiberD2Ev, @function
_ZN5boost7context5fiberD2Ev:
.LFB2879:
	.loc 4 253 0
	.cfi_startproc
	.cfi_personality 0x9b,DW.ref.__gxx_personality_v0
	.cfi_lsda 0x1b,.LLSDA2879
	pushq	%rbp
	.cfi_def_cfa_offset 16
	.cfi_offset 6, -16
	movq	%rsp, %rbp
	.cfi_def_cfa_register 6
	subq	$32, %rsp
	movq	%rdi, -24(%rbp)
	.loc 4 253 0
	movq	%fs:40, %rax
	movq	%rax, -8(%rbp)
	xorl	%eax, %eax
.LBB7:
	.loc 4 254 0
	movq	-24(%rbp), %rax
	movq	(%rax), %rax
	testq	%rax, %rax
	setne	%al
	movzbl	%al, %eax
	testq	%rax, %rax
	je	.L14
	.loc 4 262 0
	movq	$0, -16(%rbp)
	movq	-24(%rbp), %rax
	leaq	-16(%rbp), %rdx
	movq	%rdx, %rsi
	movq	%rax, %rdi
	call	_ZN5boost7context6detail8exchangeIPvDnEET_RS4_OT0_
	.loc 4 255 0
	leaq	_ZN5boost7context6detail12fiber_unwindENS1_10transfer_tE(%rip), %rdx
	movl	$0, %esi
	movq	%rax, %rdi
	call	ontop_fcontext@PLT
.L14:
.LBE7:
	.loc 4 264 0
	nop
	movq	-8(%rbp), %rax
	xorq	%fs:40, %rax
	je	.L13
	call	__stack_chk_fail@PLT
.L13:
	leave
	.cfi_def_cfa 7, 8
	ret
	.cfi_endproc
.LFE2879:
	.globl	__gxx_personality_v0
	.section	.gcc_except_table._ZN5boost7context5fiberD2Ev,"aG",@progbits,_ZN5boost7context5fiberD5Ev,comdat
.LLSDA2879:
	.byte	0xff
	.byte	0xff
	.byte	0x1
	.uleb128 .LLSDACSE2879-.LLSDACSB2879
.LLSDACSB2879:
.LLSDACSE2879:
	.section	.text._ZN5boost7context5fiberD2Ev,"axG",@progbits,_ZN5boost7context5fiberD5Ev,comdat
	.size	_ZN5boost7context5fiberD2Ev, .-_ZN5boost7context5fiberD2Ev
	.weak	_ZN5boost7context5fiberD1Ev
	.set	_ZN5boost7context5fiberD1Ev,_ZN5boost7context5fiberD2Ev
	.section	.text._ZN5boost7context5fiberC2EOS1_,"axG",@progbits,_ZN5boost7context5fiberC5EOS1_,comdat
	.align 2
	.weak	_ZN5boost7context5fiberC2EOS1_
	.type	_ZN5boost7context5fiberC2EOS1_, @function
_ZN5boost7context5fiberC2EOS1_:
.LFB2882:
	.loc 4 266 0
	.cfi_startproc
	pushq	%rbp
	.cfi_def_cfa_offset 16
	.cfi_offset 6, -16
	movq	%rsp, %rbp
	.cfi_def_cfa_register 6
	subq	$16, %rsp
	movq	%rdi, -8(%rbp)
	movq	%rsi, -16(%rbp)
.LBB8:
	.loc 4 266 0
	movq	-8(%rbp), %rax
	movq	$0, (%rax)
	.loc 4 267 0
	movq	-16(%rbp), %rdx
	movq	-8(%rbp), %rax
	movq	%rdx, %rsi
	movq	%rax, %rdi
	call	_ZN5boost7context5fiber4swapERS1_
.LBE8:
	.loc 4 268 0
	nop
	leave
	.cfi_def_cfa 7, 8
	ret
	.cfi_endproc
.LFE2882:
	.size	_ZN5boost7context5fiberC2EOS1_, .-_ZN5boost7context5fiberC2EOS1_
	.weak	_ZN5boost7context5fiberC1EOS1_
	.set	_ZN5boost7context5fiberC1EOS1_,_ZN5boost7context5fiberC2EOS1_
	.section	.text._ZSt4moveIRN5boost7context5fiberEEONSt16remove_referenceIT_E4typeEOS5_,"axG",@progbits,_ZSt4moveIRN5boost7context5fiberEEONSt16remove_referenceIT_E4typeEOS5_,comdat
	.weak	_ZSt4moveIRN5boost7context5fiberEEONSt16remove_referenceIT_E4typeEOS5_
	.type	_ZSt4moveIRN5boost7context5fiberEEONSt16remove_referenceIT_E4typeEOS5_, @function
_ZSt4moveIRN5boost7context5fiberEEONSt16remove_referenceIT_E4typeEOS5_:
.LFB2885:
	.file 5 "/usr/include/c++/7/bits/move.h"
	.loc 5 98 0
	.cfi_startproc
	pushq	%rbp
	.cfi_def_cfa_offset 16
	.cfi_offset 6, -16
	movq	%rsp, %rbp
	.cfi_def_cfa_register 6
	movq	%rdi, -8(%rbp)
	.loc 5 99 0
	movq	-8(%rbp), %rax
	popq	%rbp
	.cfi_def_cfa 7, 8
	ret
	.cfi_endproc
.LFE2885:
	.size	_ZSt4moveIRN5boost7context5fiberEEONSt16remove_referenceIT_E4typeEOS5_, .-_ZSt4moveIRN5boost7context5fiberEEONSt16remove_referenceIT_E4typeEOS5_
	.section	.text._ZN5boost7context5fiberaSEOS1_,"axG",@progbits,_ZN5boost7context5fiberaSEOS1_,comdat
	.align 2
	.weak	_ZN5boost7context5fiberaSEOS1_
	.type	_ZN5boost7context5fiberaSEOS1_, @function
_ZN5boost7context5fiberaSEOS1_:
.LFB2884:
	.loc 4 270 0
	.cfi_startproc
	pushq	%rbp
	.cfi_def_cfa_offset 16
	.cfi_offset 6, -16
	movq	%rsp, %rbp
	.cfi_def_cfa_register 6
	subq	$32, %rsp
	movq	%rdi, -24(%rbp)
	movq	%rsi, -32(%rbp)
	.loc 4 270 0
	movq	%fs:40, %rax
	movq	%rax, -8(%rbp)
	xorl	%eax, %eax
.LBB9:
	.loc 4 271 0
	movq	-24(%rbp), %rax
	cmpq	-32(%rbp), %rax
	setne	%al
	movzbl	%al, %eax
	testq	%rax, %rax
	je	.L19
.LBB10:
	.loc 4 272 0
	movq	-32(%rbp), %rax
	movq	%rax, %rdi
	call	_ZSt4moveIRN5boost7context5fiberEEONSt16remove_referenceIT_E4typeEOS5_
	movq	%rax, %rdx
	leaq	-16(%rbp), %rax
	movq	%rdx, %rsi
	movq	%rax, %rdi
	call	_ZN5boost7context5fiberC1EOS1_
	.loc 4 273 0
	leaq	-16(%rbp), %rdx
	movq	-24(%rbp), %rax
	movq	%rdx, %rsi
	movq	%rax, %rdi
	call	_ZN5boost7context5fiber4swapERS1_
	.loc 4 272 0
	leaq	-16(%rbp), %rax
	movq	%rax, %rdi
	call	_ZN5boost7context5fiberD1Ev
.L19:
.LBE10:
.LBE9:
	.loc 4 275 0
	movq	-24(%rbp), %rax
	.loc 4 276 0
	movq	-8(%rbp), %rcx
	xorq	%fs:40, %rcx
	je	.L21
	call	__stack_chk_fail@PLT
.L21:
	leave
	.cfi_def_cfa 7, 8
	ret
	.cfi_endproc
.LFE2884:
	.size	_ZN5boost7context5fiberaSEOS1_, .-_ZN5boost7context5fiberaSEOS1_
	.section	.rodata
	.align 8
.LC2:
	.string	"/usr/local/include/boost/context/fiber_fcontext.hpp"
.LC3:
	.string	"nullptr != fctx_"
	.section	.text._ZNO5boost7context5fiber6resumeEv,"axG",@progbits,_ZNO5boost7context5fiber6resumeEv,comdat
	.align 2
	.weak	_ZNO5boost7context5fiber6resumeEv
	.type	_ZNO5boost7context5fiber6resumeEv, @function
_ZNO5boost7context5fiber6resumeEv:
.LFB2886:
	.loc 4 281 0
	.cfi_startproc
	pushq	%rbp
	.cfi_def_cfa_offset 16
	.cfi_offset 6, -16
	movq	%rsp, %rbp
	.cfi_def_cfa_register 6
	subq	$32, %rsp
	movq	%rdi, -24(%rbp)
	movq	%rsi, -32(%rbp)
	.loc 4 281 0
	movq	%fs:40, %rax
	movq	%rax, -8(%rbp)
	xorl	%eax, %eax
	.loc 4 282 0
	movq	-32(%rbp), %rax
	movq	(%rax), %rax
	testq	%rax, %rax
	jne	.L23
	.loc 4 282 0 is_stmt 0 discriminator 1
	leaq	_ZZNO5boost7context5fiber6resumeEvE19__PRETTY_FUNCTION__(%rip), %rcx
	movl	$282, %edx
	leaq	.LC2(%rip), %rsi
	leaq	.LC3(%rip), %rdi
	call	__assert_fail@PLT
.L23:
	.loc 4 289 0 is_stmt 1
	movq	$0, -16(%rbp)
	movq	-32(%rbp), %rax
	leaq	-16(%rbp), %rdx
	movq	%rdx, %rsi
	movq	%rax, %rdi
	call	_ZN5boost7context6detail8exchangeIPvDnEET_RS4_OT0_
	.loc 4 283 0
	movl	$0, %esi
	movq	%rax, %rdi
	call	jump_fcontext@PLT
	.loc 4 289 0
	movq	%rax, %rdx
	movq	-24(%rbp), %rax
	movq	%rdx, %rsi
	movq	%rax, %rdi
	call	_ZN5boost7context5fiberC1EPv
	.loc 4 290 0
	movq	-24(%rbp), %rax
	movq	-8(%rbp), %rcx
	xorq	%fs:40, %rcx
	je	.L25
	call	__stack_chk_fail@PLT
.L25:
	leave
	.cfi_def_cfa 7, 8
	ret
	.cfi_endproc
.LFE2886:
	.size	_ZNO5boost7context5fiber6resumeEv, .-_ZNO5boost7context5fiber6resumeEv
	.section	.text._ZN5boost7context5fiber4swapERS1_,"axG",@progbits,_ZN5boost7context5fiber4swapERS1_,comdat
	.align 2
	.weak	_ZN5boost7context5fiber4swapERS1_
	.type	_ZN5boost7context5fiber4swapERS1_, @function
_ZN5boost7context5fiber4swapERS1_:
.LFB2892:
	.loc 4 328 0
	.cfi_startproc
	pushq	%rbp
	.cfi_def_cfa_offset 16
	.cfi_offset 6, -16
	movq	%rsp, %rbp
	.cfi_def_cfa_register 6
	subq	$16, %rsp
	movq	%rdi, -8(%rbp)
	movq	%rsi, -16(%rbp)
	.loc 4 329 0
	movq	-16(%rbp), %rdx
	movq	-8(%rbp), %rax
	movq	%rdx, %rsi
	movq	%rax, %rdi
	call	_ZSt4swapIPvENSt9enable_ifIXsrSt6__and_IJSt6__not_ISt15__is_tuple_likeIT_EESt21is_move_constructibleIS5_ESt18is_move_assignableIS5_EEE5valueEvE4typeERS5_SF_
	.loc 4 330 0
	nop
	leave
	.cfi_def_cfa 7, 8
	ret
	.cfi_endproc
.LFE2892:
	.size	_ZN5boost7context5fiber4swapERS1_, .-_ZN5boost7context5fiber4swapERS1_
	.section	.rodata
.LC4:
	.string	"f1: entered first time"
.LC5:
	.string	"f1: entered second time"
	.text
	.globl	_Z2f1ON5boost7context5fiberE
	.type	_Z2f1ON5boost7context5fiberE, @function
_Z2f1ON5boost7context5fiberE:
.LFB2894:
	.file 6 "jump_void.cpp"
	.loc 6 8 0
	.cfi_startproc
	pushq	%rbp
	.cfi_def_cfa_offset 16
	.cfi_offset 6, -16
	movq	%rsp, %rbp
	.cfi_def_cfa_register 6
	subq	$32, %rsp
	movq	%rdi, -24(%rbp)
	movq	%rsi, -32(%rbp)
	.loc 6 8 0
	movq	%fs:40, %rax
	movq	%rax, -8(%rbp)
	xorl	%eax, %eax
	.loc 6 9 0
	leaq	.LC4(%rip), %rsi
	leaq	_ZSt4cout(%rip), %rdi
	call	_ZStlsISt11char_traitsIcEERSt13basic_ostreamIcT_ES5_PKc@PLT
	movq	%rax, %rdx
	movq	_ZSt4endlIcSt11char_traitsIcEERSt13basic_ostreamIT_T0_ES6_@GOTPCREL(%rip), %rax
	movq	%rax, %rsi
	movq	%rdx, %rdi
	call	_ZNSolsEPFRSoS_E@PLT
	.loc 6 10 0
	movq	-32(%rbp), %rax
	movq	%rax, %rdi
	call	_ZSt4moveIRN5boost7context5fiberEEONSt16remove_referenceIT_E4typeEOS5_
	movq	%rax, %rdx
	leaq	-16(%rbp), %rax
	movq	%rdx, %rsi
	movq	%rax, %rdi
	call	_ZNO5boost7context5fiber6resumeEv
	leaq	-16(%rbp), %rdx
	movq	-32(%rbp), %rax
	movq	%rdx, %rsi
	movq	%rax, %rdi
	call	_ZN5boost7context5fiberaSEOS1_
	leaq	-16(%rbp), %rax
	movq	%rax, %rdi
	call	_ZN5boost7context5fiberD1Ev
	.loc 6 11 0
	leaq	.LC5(%rip), %rsi
	leaq	_ZSt4cout(%rip), %rdi
	call	_ZStlsISt11char_traitsIcEERSt13basic_ostreamIcT_ES5_PKc@PLT
	movq	%rax, %rdx
	movq	_ZSt4endlIcSt11char_traitsIcEERSt13basic_ostreamIT_T0_ES6_@GOTPCREL(%rip), %rax
	movq	%rax, %rsi
	movq	%rdx, %rdi
	call	_ZNSolsEPFRSoS_E@PLT
	.loc 6 12 0
	movq	-32(%rbp), %rax
	movq	%rax, %rdi
	call	_ZSt4moveIRN5boost7context5fiberEEONSt16remove_referenceIT_E4typeEOS5_
	movq	%rax, %rdx
	movq	-24(%rbp), %rax
	movq	%rdx, %rsi
	movq	%rax, %rdi
	call	_ZN5boost7context5fiberC1EOS1_
	.loc 6 13 0
	movq	-24(%rbp), %rax
	movq	-8(%rbp), %rcx
	xorq	%fs:40, %rcx
	je	.L29
	call	__stack_chk_fail@PLT
.L29:
	leave
	.cfi_def_cfa 7, 8
	ret
	.cfi_endproc
.LFE2894:
	.size	_Z2f1ON5boost7context5fiberE, .-_Z2f1ON5boost7context5fiberE
	.section	.rodata
.LC6:
	.string	"f1: returned first time"
.LC7:
	.string	"f1: returned second time"
.LC8:
	.string	"main: done"
	.text
	.globl	main
	.type	main, @function
main:
.LFB2895:
	.loc 6 15 0
	.cfi_startproc
	.cfi_personality 0x9b,DW.ref.__gxx_personality_v0
	.cfi_lsda 0x1b,.LLSDA2895
	pushq	%rbp
	.cfi_def_cfa_offset 16
	.cfi_offset 6, -16
	movq	%rsp, %rbp
	.cfi_def_cfa_register 6
	pushq	%rbx
	subq	$40, %rsp
	.cfi_offset 3, -24
	.loc 6 15 0
	movq	%fs:40, %rax
	movq	%rax, -24(%rbp)
	xorl	%eax, %eax
	.loc 6 16 0
	leaq	-48(%rbp), %rax
	leaq	_Z2f1ON5boost7context5fiberE(%rip), %rsi
	movq	%rax, %rdi
.LEHB0:
	call	_ZN5boost7context5fiberC1IRFS1_OS1_EvEEOT_
.LEHE0:
	.loc 6 17 0
	leaq	-48(%rbp), %rax
	movq	%rax, %rdi
	call	_ZSt4moveIRN5boost7context5fiberEEONSt16remove_referenceIT_E4typeEOS5_
	movq	%rax, %rdx
	leaq	-40(%rbp), %rax
	movq	%rdx, %rsi
	movq	%rax, %rdi
.LEHB1:
	call	_ZNO5boost7context5fiber6resumeEv
	.loc 6 17 0 is_stmt 0 discriminator 1
	leaq	-40(%rbp), %rdx
	leaq	-48(%rbp), %rax
	movq	%rdx, %rsi
	movq	%rax, %rdi
	call	_ZN5boost7context5fiberaSEOS1_
	leaq	-40(%rbp), %rax
	movq	%rax, %rdi
	call	_ZN5boost7context5fiberD1Ev
	.loc 6 18 0 is_stmt 1 discriminator 1
	leaq	.LC6(%rip), %rsi
	leaq	_ZSt4cout(%rip), %rdi
	call	_ZStlsISt11char_traitsIcEERSt13basic_ostreamIcT_ES5_PKc@PLT
	movq	%rax, %rdx
	movq	_ZSt4endlIcSt11char_traitsIcEERSt13basic_ostreamIT_T0_ES6_@GOTPCREL(%rip), %rax
	movq	%rax, %rsi
	movq	%rdx, %rdi
	call	_ZNSolsEPFRSoS_E@PLT
	.loc 6 19 0
	leaq	-48(%rbp), %rax
	movq	%rax, %rdi
	call	_ZSt4moveIRN5boost7context5fiberEEONSt16remove_referenceIT_E4typeEOS5_
	movq	%rax, %rdx
	leaq	-32(%rbp), %rax
	movq	%rdx, %rsi
	movq	%rax, %rdi
	call	_ZNO5boost7context5fiber6resumeEv
	.loc 6 19 0 is_stmt 0 discriminator 1
	leaq	-32(%rbp), %rdx
	leaq	-48(%rbp), %rax
	movq	%rdx, %rsi
	movq	%rax, %rdi
	call	_ZN5boost7context5fiberaSEOS1_
	leaq	-32(%rbp), %rax
	movq	%rax, %rdi
	call	_ZN5boost7context5fiberD1Ev
	.loc 6 20 0 is_stmt 1 discriminator 1
	leaq	.LC7(%rip), %rsi
	leaq	_ZSt4cout(%rip), %rdi
	call	_ZStlsISt11char_traitsIcEERSt13basic_ostreamIcT_ES5_PKc@PLT
	movq	%rax, %rdx
	movq	_ZSt4endlIcSt11char_traitsIcEERSt13basic_ostreamIT_T0_ES6_@GOTPCREL(%rip), %rax
	movq	%rax, %rsi
	movq	%rdx, %rdi
	call	_ZNSolsEPFRSoS_E@PLT
	.loc 6 21 0
	leaq	.LC8(%rip), %rsi
	leaq	_ZSt4cout(%rip), %rdi
	call	_ZStlsISt11char_traitsIcEERSt13basic_ostreamIcT_ES5_PKc@PLT
	movq	%rax, %rdx
	movq	_ZSt4endlIcSt11char_traitsIcEERSt13basic_ostreamIT_T0_ES6_@GOTPCREL(%rip), %rax
	movq	%rax, %rsi
	movq	%rdx, %rdi
	call	_ZNSolsEPFRSoS_E@PLT
.LEHE1:
	.loc 6 22 0
	movl	$0, %ebx
	.loc 6 16 0
	leaq	-48(%rbp), %rax
	movq	%rax, %rdi
	call	_ZN5boost7context5fiberD1Ev
	movl	%ebx, %eax
	.loc 6 23 0
	movq	-24(%rbp), %rcx
	xorq	%fs:40, %rcx
	je	.L33
	jmp	.L35
.L34:
	movq	%rax, %rbx
	.loc 6 16 0
	leaq	-48(%rbp), %rax
	movq	%rax, %rdi
	call	_ZN5boost7context5fiberD1Ev
	movq	%rbx, %rax
	movq	%rax, %rdi
.LEHB2:
	call	_Unwind_Resume@PLT
.LEHE2:
.L35:
	.loc 6 23 0
	call	__stack_chk_fail@PLT
.L33:
	addq	$40, %rsp
	popq	%rbx
	popq	%rbp
	.cfi_def_cfa 7, 8
	ret
	.cfi_endproc
.LFE2895:
	.section	.gcc_except_table,"a",@progbits
.LLSDA2895:
	.byte	0xff
	.byte	0xff
	.byte	0x1
	.uleb128 .LLSDACSE2895-.LLSDACSB2895
.LLSDACSB2895:
	.uleb128 .LEHB0-.LFB2895
	.uleb128 .LEHE0-.LEHB0
	.uleb128 0
	.uleb128 0
	.uleb128 .LEHB1-.LFB2895
	.uleb128 .LEHE1-.LEHB1
	.uleb128 .L34-.LFB2895
	.uleb128 0
	.uleb128 .LEHB2-.LFB2895
	.uleb128 .LEHE2-.LEHB2
	.uleb128 0
	.uleb128 0
.LLSDACSE2895:
	.text
	.size	main, .-main
	.section	.text._ZSt4moveIRPvEONSt16remove_referenceIT_E4typeEOS3_,"axG",@progbits,_ZSt4moveIRPvEONSt16remove_referenceIT_E4typeEOS3_,comdat
	.weak	_ZSt4moveIRPvEONSt16remove_referenceIT_E4typeEOS3_
	.type	_ZSt4moveIRPvEONSt16remove_referenceIT_E4typeEOS3_, @function
_ZSt4moveIRPvEONSt16remove_referenceIT_E4typeEOS3_:
.LFB3081:
	.loc 5 98 0
	.cfi_startproc
	pushq	%rbp
	.cfi_def_cfa_offset 16
	.cfi_offset 6, -16
	movq	%rsp, %rbp
	.cfi_def_cfa_register 6
	movq	%rdi, -8(%rbp)
	.loc 5 99 0
	movq	-8(%rbp), %rax
	popq	%rbp
	.cfi_def_cfa 7, 8
	ret
	.cfi_endproc
.LFE3081:
	.size	_ZSt4moveIRPvEONSt16remove_referenceIT_E4typeEOS3_, .-_ZSt4moveIRPvEONSt16remove_referenceIT_E4typeEOS3_
	.section	.text._ZSt7forwardIDnEOT_RNSt16remove_referenceIS0_E4typeE,"axG",@progbits,_ZSt7forwardIDnEOT_RNSt16remove_referenceIS0_E4typeE,comdat
	.weak	_ZSt7forwardIDnEOT_RNSt16remove_referenceIS0_E4typeE
	.type	_ZSt7forwardIDnEOT_RNSt16remove_referenceIS0_E4typeE, @function
_ZSt7forwardIDnEOT_RNSt16remove_referenceIS0_E4typeE:
.LFB3082:
	.loc 5 73 0
	.cfi_startproc
	pushq	%rbp
	.cfi_def_cfa_offset 16
	.cfi_offset 6, -16
	movq	%rsp, %rbp
	.cfi_def_cfa_register 6
	movq	%rdi, -8(%rbp)
	.loc 5 74 0
	movq	-8(%rbp), %rax
	popq	%rbp
	.cfi_def_cfa 7, 8
	ret
	.cfi_endproc
.LFE3082:
	.size	_ZSt7forwardIDnEOT_RNSt16remove_referenceIS0_E4typeE, .-_ZSt7forwardIDnEOT_RNSt16remove_referenceIS0_E4typeE
	.section	.text._ZN5boost7context6detail8exchangeIPvDnEET_RS4_OT0_,"axG",@progbits,_ZN5boost7context6detail8exchangeIPvDnEET_RS4_OT0_,comdat
	.weak	_ZN5boost7context6detail8exchangeIPvDnEET_RS4_OT0_
	.type	_ZN5boost7context6detail8exchangeIPvDnEET_RS4_OT0_, @function
_ZN5boost7context6detail8exchangeIPvDnEET_RS4_OT0_:
.LFB3080:
	.file 7 "/usr/local/include/boost/context/detail/exchange.hpp"
	.loc 7 24 0
	.cfi_startproc
	pushq	%rbp
	.cfi_def_cfa_offset 16
	.cfi_offset 6, -16
	movq	%rsp, %rbp
	.cfi_def_cfa_register 6
	subq	$32, %rsp
	movq	%rdi, -24(%rbp)
	movq	%rsi, -32(%rbp)
	.loc 7 25 0
	movq	-24(%rbp), %rax
	movq	%rax, %rdi
	call	_ZSt4moveIRPvEONSt16remove_referenceIT_E4typeEOS3_
	movq	(%rax), %rax
	movq	%rax, -8(%rbp)
	.loc 7 26 0
	movq	-32(%rbp), %rax
	movq	%rax, %rdi
	call	_ZSt7forwardIDnEOT_RNSt16remove_referenceIS0_E4typeE
	movq	-24(%rbp), %rax
	movq	$0, (%rax)
	.loc 7 27 0
	movq	-8(%rbp), %rax
	.loc 7 28 0
	leave
	.cfi_def_cfa 7, 8
	ret
	.cfi_endproc
.LFE3080:
	.size	_ZN5boost7context6detail8exchangeIPvDnEET_RS4_OT0_, .-_ZN5boost7context6detail8exchangeIPvDnEET_RS4_OT0_
	.section	.text._ZSt4swapIPvENSt9enable_ifIXsrSt6__and_IJSt6__not_ISt15__is_tuple_likeIT_EESt21is_move_constructibleIS5_ESt18is_move_assignableIS5_EEE5valueEvE4typeERS5_SF_,"axG",@progbits,_ZSt4swapIPvENSt9enable_ifIXsrSt6__and_IJSt6__not_ISt15__is_tuple_likeIT_EESt21is_move_constructibleIS5_ESt18is_move_assignableIS5_EEE5valueEvE4typeERS5_SF_,comdat
	.weak	_ZSt4swapIPvENSt9enable_ifIXsrSt6__and_IJSt6__not_ISt15__is_tuple_likeIT_EESt21is_move_constructibleIS5_ESt18is_move_assignableIS5_EEE5valueEvE4typeERS5_SF_
	.type	_ZSt4swapIPvENSt9enable_ifIXsrSt6__and_IJSt6__not_ISt15__is_tuple_likeIT_EESt21is_move_constructibleIS5_ESt18is_move_assignableIS5_EEE5valueEvE4typeERS5_SF_, @function
_ZSt4swapIPvENSt9enable_ifIXsrSt6__and_IJSt6__not_ISt15__is_tuple_likeIT_EESt21is_move_constructibleIS5_ESt18is_move_assignableIS5_EEE5valueEvE4typeERS5_SF_:
.LFB3083:
	.loc 5 187 0
	.cfi_startproc
	pushq	%rbp
	.cfi_def_cfa_offset 16
	.cfi_offset 6, -16
	movq	%rsp, %rbp
	.cfi_def_cfa_register 6
	subq	$32, %rsp
	movq	%rdi, -24(%rbp)
	movq	%rsi, -32(%rbp)
	.loc 5 187 0
	movq	%fs:40, %rax
	movq	%rax, -8(%rbp)
	xorl	%eax, %eax
	.loc 5 198 0
	movq	-24(%rbp), %rax
	movq	%rax, %rdi
	call	_ZSt4moveIRPvEONSt16remove_referenceIT_E4typeEOS3_
	movq	(%rax), %rax
	movq	%rax, -16(%rbp)
	.loc 5 199 0
	movq	-32(%rbp), %rax
	movq	%rax, %rdi
	call	_ZSt4moveIRPvEONSt16remove_referenceIT_E4typeEOS3_
	movq	(%rax), %rdx
	movq	-24(%rbp), %rax
	movq	%rdx, (%rax)
	.loc 5 200 0
	leaq	-16(%rbp), %rax
	movq	%rax, %rdi
	call	_ZSt4moveIRPvEONSt16remove_referenceIT_E4typeEOS3_
	movq	(%rax), %rdx
	movq	-32(%rbp), %rax
	movq	%rdx, (%rax)
	.loc 5 201 0
	nop
	movq	-8(%rbp), %rax
	xorq	%fs:40, %rax
	je	.L43
	call	__stack_chk_fail@PLT
.L43:
	leave
	.cfi_def_cfa 7, 8
	ret
	.cfi_endproc
.LFE3083:
	.size	_ZSt4swapIPvENSt9enable_ifIXsrSt6__and_IJSt6__not_ISt15__is_tuple_likeIT_EESt21is_move_constructibleIS5_ESt18is_move_assignableIS5_EEE5valueEvE4typeERS5_SF_, .-_ZSt4swapIPvENSt9enable_ifIXsrSt6__and_IJSt6__not_ISt15__is_tuple_likeIT_EESt21is_move_constructibleIS5_ESt18is_move_assignableIS5_EEE5valueEvE4typeERS5_SF_
	.section	.text._ZSt7forwardIRFN5boost7context5fiberEOS2_EEOT_RNSt16remove_referenceIS6_E4typeE,"axG",@progbits,_ZSt7forwardIRFN5boost7context5fiberEOS2_EEOT_RNSt16remove_referenceIS6_E4typeE,comdat
	.weak	_ZSt7forwardIRFN5boost7context5fiberEOS2_EEOT_RNSt16remove_referenceIS6_E4typeE
	.type	_ZSt7forwardIRFN5boost7context5fiberEOS2_EEOT_RNSt16remove_referenceIS6_E4typeE, @function
_ZSt7forwardIRFN5boost7context5fiberEOS2_EEOT_RNSt16remove_referenceIS6_E4typeE:
.LFB3088:
	.loc 5 73 0
	.cfi_startproc
	pushq	%rbp
	.cfi_def_cfa_offset 16
	.cfi_offset 6, -16
	movq	%rsp, %rbp
	.cfi_def_cfa_register 6
	movq	%rdi, -8(%rbp)
	.loc 5 74 0
	movq	-8(%rbp), %rax
	popq	%rbp
	.cfi_def_cfa 7, 8
	ret
	.cfi_endproc
.LFE3088:
	.size	_ZSt7forwardIRFN5boost7context5fiberEOS2_EEOT_RNSt16remove_referenceIS6_E4typeE, .-_ZSt7forwardIRFN5boost7context5fiberEOS2_EEOT_RNSt16remove_referenceIS6_E4typeE
	.section	.text._ZN5boost7context5fiberC2IRFS1_OS1_EvEEOT_,"axG",@progbits,_ZN5boost7context5fiberC5IRFS1_OS1_EvEEOT_,comdat
	.align 2
	.weak	_ZN5boost7context5fiberC2IRFS1_OS1_EvEEOT_
	.type	_ZN5boost7context5fiberC2IRFS1_OS1_EvEEOT_, @function
_ZN5boost7context5fiberC2IRFS1_OS1_EvEEOT_:
.LFB3089:
	.loc 4 229 0
	.cfi_startproc
	pushq	%rbp
	.cfi_def_cfa_offset 16
	.cfi_offset 6, -16
	movq	%rsp, %rbp
	.cfi_def_cfa_register 6
	pushq	%rbx
	subq	$40, %rsp
	.cfi_offset 3, -24
	movq	%rdi, -40(%rbp)
	movq	%rsi, -48(%rbp)
	.loc 4 229 0
	movq	%fs:40, %rax
	movq	%rax, -24(%rbp)
	xorl	%eax, %eax
.LBB11:
	.loc 4 230 0
	call	_ZN5boost7context12stack_traits12default_sizeEv@PLT
	movq	%rax, %rdx
	leaq	-32(%rbp), %rax
	movq	%rdx, %rsi
	movq	%rax, %rdi
	call	_ZN5boost7context21basic_fixedsize_stackINS0_12stack_traitsEEC1Em
	movq	-48(%rbp), %rax
	movq	%rax, %rdi
	call	_ZSt7forwardIRFN5boost7context5fiberEOS2_EEOT_RNSt16remove_referenceIS6_E4typeE
	movq	%rax, %rdx
	leaq	-32(%rbp), %rcx
	movq	-40(%rbp), %rax
	subq	$8, %rsp
	pushq	%rbx
	movq	%rcx, %rsi
	movq	%rax, %rdi
	call	_ZN5boost7context5fiberC1INS0_21basic_fixedsize_stackINS0_12stack_traitsEEERFS1_OS1_EEESt15allocator_arg_tOT_OT0_
	addq	$16, %rsp
.LBE11:
	.loc 4 231 0
	nop
	movq	-24(%rbp), %rax
	xorq	%fs:40, %rax
	je	.L47
	call	__stack_chk_fail@PLT
.L47:
	movq	-8(%rbp), %rbx
	leave
	.cfi_def_cfa 7, 8
	ret
	.cfi_endproc
.LFE3089:
	.size	_ZN5boost7context5fiberC2IRFS1_OS1_EvEEOT_, .-_ZN5boost7context5fiberC2IRFS1_OS1_EvEEOT_
	.weak	_ZN5boost7context5fiberC1IRFS1_OS1_EvEEOT_
	.set	_ZN5boost7context5fiberC1IRFS1_OS1_EvEEOT_,_ZN5boost7context5fiberC2IRFS1_OS1_EvEEOT_
	.section	.text._ZN5boost7context21basic_fixedsize_stackINS0_12stack_traitsEEC2Em,"axG",@progbits,_ZN5boost7context21basic_fixedsize_stackINS0_12stack_traitsEEC5Em,comdat
	.align 2
	.weak	_ZN5boost7context21basic_fixedsize_stackINS0_12stack_traitsEEC2Em
	.type	_ZN5boost7context21basic_fixedsize_stackINS0_12stack_traitsEEC2Em, @function
_ZN5boost7context21basic_fixedsize_stackINS0_12stack_traitsEEC2Em:
.LFB3155:
	.file 8 "/usr/local/include/boost/context/fixedsize_stack.hpp"
	.loc 8 40 0
	.cfi_startproc
	pushq	%rbp
	.cfi_def_cfa_offset 16
	.cfi_offset 6, -16
	movq	%rsp, %rbp
	.cfi_def_cfa_register 6
	movq	%rdi, -8(%rbp)
	movq	%rsi, -16(%rbp)
.LBB12:
	.loc 8 41 0
	movq	-8(%rbp), %rax
	movq	-16(%rbp), %rdx
	movq	%rdx, (%rax)
.LBE12:
	.loc 8 42 0
	nop
	popq	%rbp
	.cfi_def_cfa 7, 8
	ret
	.cfi_endproc
.LFE3155:
	.size	_ZN5boost7context21basic_fixedsize_stackINS0_12stack_traitsEEC2Em, .-_ZN5boost7context21basic_fixedsize_stackINS0_12stack_traitsEEC2Em
	.weak	_ZN5boost7context21basic_fixedsize_stackINS0_12stack_traitsEEC1Em
	.set	_ZN5boost7context21basic_fixedsize_stackINS0_12stack_traitsEEC1Em,_ZN5boost7context21basic_fixedsize_stackINS0_12stack_traitsEEC2Em
	.section	.text._ZSt7forwardIN5boost7context21basic_fixedsize_stackINS1_12stack_traitsEEEEOT_RNSt16remove_referenceIS5_E4typeE,"axG",@progbits,_ZSt7forwardIN5boost7context21basic_fixedsize_stackINS1_12stack_traitsEEEEOT_RNSt16remove_referenceIS5_E4typeE,comdat
	.weak	_ZSt7forwardIN5boost7context21basic_fixedsize_stackINS1_12stack_traitsEEEEOT_RNSt16remove_referenceIS5_E4typeE
	.type	_ZSt7forwardIN5boost7context21basic_fixedsize_stackINS1_12stack_traitsEEEEOT_RNSt16remove_referenceIS5_E4typeE, @function
_ZSt7forwardIN5boost7context21basic_fixedsize_stackINS1_12stack_traitsEEEEOT_RNSt16remove_referenceIS5_E4typeE:
.LFB3158:
	.loc 5 73 0
	.cfi_startproc
	pushq	%rbp
	.cfi_def_cfa_offset 16
	.cfi_offset 6, -16
	movq	%rsp, %rbp
	.cfi_def_cfa_register 6
	movq	%rdi, -8(%rbp)
	.loc 5 74 0
	movq	-8(%rbp), %rax
	popq	%rbp
	.cfi_def_cfa 7, 8
	ret
	.cfi_endproc
.LFE3158:
	.size	_ZSt7forwardIN5boost7context21basic_fixedsize_stackINS1_12stack_traitsEEEEOT_RNSt16remove_referenceIS5_E4typeE, .-_ZSt7forwardIN5boost7context21basic_fixedsize_stackINS1_12stack_traitsEEEEOT_RNSt16remove_referenceIS5_E4typeE
	.section	.text._ZN5boost7context5fiberC2INS0_21basic_fixedsize_stackINS0_12stack_traitsEEERFS1_OS1_EEESt15allocator_arg_tOT_OT0_,"axG",@progbits,_ZN5boost7context5fiberC5INS0_21basic_fixedsize_stackINS0_12stack_traitsEEERFS1_OS1_EEESt15allocator_arg_tOT_OT0_,comdat
	.align 2
	.weak	_ZN5boost7context5fiberC2INS0_21basic_fixedsize_stackINS0_12stack_traitsEEERFS1_OS1_EEESt15allocator_arg_tOT_OT0_
	.type	_ZN5boost7context5fiberC2INS0_21basic_fixedsize_stackINS0_12stack_traitsEEERFS1_OS1_EEESt15allocator_arg_tOT_OT0_, @function
_ZN5boost7context5fiberC2INS0_21basic_fixedsize_stackINS0_12stack_traitsEEERFS1_OS1_EEESt15allocator_arg_tOT_OT0_:
.LFB3159:
	.loc 4 234 0
	.cfi_startproc
	pushq	%rbp
	.cfi_def_cfa_offset 16
	.cfi_offset 6, -16
	movq	%rsp, %rbp
	.cfi_def_cfa_register 6
	pushq	%rbx
	subq	$40, %rsp
	.cfi_offset 3, -24
	movq	%rdi, -24(%rbp)
	movq	%rsi, -32(%rbp)
	movq	%rdx, -40(%rbp)
.LBB13:
	.loc 4 235 0
	movq	-40(%rbp), %rax
	movq	%rax, %rdi
	call	_ZSt7forwardIRFN5boost7context5fiberEOS2_EEOT_RNSt16remove_referenceIS6_E4typeE
	movq	%rax, %rbx
	movq	-32(%rbp), %rax
	movq	%rax, %rdi
	call	_ZSt7forwardIN5boost7context21basic_fixedsize_stackINS1_12stack_traitsEEEEOT_RNSt16remove_referenceIS5_E4typeE
	movq	%rbx, %rsi
	movq	%rax, %rdi
	call	_ZN5boost7context6detail13create_fiber1INS1_12fiber_recordINS0_5fiberENS0_21basic_fixedsize_stackINS0_12stack_traitsEEERFS4_OS4_EEES7_SA_EEPvOT0_OT1_
	movq	%rax, %rdx
	.loc 4 236 0
	movq	-24(%rbp), %rax
	movq	%rdx, (%rax)
.LBE13:
	.loc 4 237 0
	nop
	addq	$40, %rsp
	popq	%rbx
	popq	%rbp
	.cfi_def_cfa 7, 8
	ret
	.cfi_endproc
.LFE3159:
	.size	_ZN5boost7context5fiberC2INS0_21basic_fixedsize_stackINS0_12stack_traitsEEERFS1_OS1_EEESt15allocator_arg_tOT_OT0_, .-_ZN5boost7context5fiberC2INS0_21basic_fixedsize_stackINS0_12stack_traitsEEERFS1_OS1_EEESt15allocator_arg_tOT_OT0_
	.weak	_ZN5boost7context5fiberC1INS0_21basic_fixedsize_stackINS0_12stack_traitsEEERFS1_OS1_EEESt15allocator_arg_tOT_OT0_
	.set	_ZN5boost7context5fiberC1INS0_21basic_fixedsize_stackINS0_12stack_traitsEEERFS1_OS1_EEESt15allocator_arg_tOT_OT0_,_ZN5boost7context5fiberC2INS0_21basic_fixedsize_stackINS0_12stack_traitsEEERFS1_OS1_EEESt15allocator_arg_tOT_OT0_
	.section	.rodata
.LC9:
	.string	"nullptr != fctx"
	.section	.text._ZN5boost7context6detail13create_fiber1INS1_12fiber_recordINS0_5fiberENS0_21basic_fixedsize_stackINS0_12stack_traitsEEERFS4_OS4_EEES7_SA_EEPvOT0_OT1_,"axG",@progbits,_ZN5boost7context6detail13create_fiber1INS1_12fiber_recordINS0_5fiberENS0_21basic_fixedsize_stackINS0_12stack_traitsEEERFS4_OS4_EEES7_SA_EEPvOT0_OT1_,comdat
	.weak	_ZN5boost7context6detail13create_fiber1INS1_12fiber_recordINS0_5fiberENS0_21basic_fixedsize_stackINS0_12stack_traitsEEERFS4_OS4_EEES7_SA_EEPvOT0_OT1_
	.type	_ZN5boost7context6detail13create_fiber1INS1_12fiber_recordINS0_5fiberENS0_21basic_fixedsize_stackINS0_12stack_traitsEEERFS4_OS4_EEES7_SA_EEPvOT0_OT1_, @function
_ZN5boost7context6detail13create_fiber1INS1_12fiber_recordINS0_5fiberENS0_21basic_fixedsize_stackINS0_12stack_traitsEEERFS4_OS4_EEES7_SA_EEPvOT0_OT1_:
.LFB3199:
	.loc 4 155 0
	.cfi_startproc
	pushq	%rbp
	.cfi_def_cfa_offset 16
	.cfi_offset 6, -16
	movq	%rsp, %rbp
	.cfi_def_cfa_register 6
	pushq	%r13
	pushq	%r12
	pushq	%rbx
	subq	$120, %rsp
	.cfi_offset 13, -24
	.cfi_offset 12, -32
	.cfi_offset 3, -40
	movq	%rdi, -136(%rbp)
	movq	%rsi, -144(%rbp)
	.loc 4 155 0
	movq	%fs:40, %rax
	movq	%rax, -40(%rbp)
	xorl	%eax, %eax
	.loc 4 156 0
	movq	-136(%rbp), %rax
	movq	%rax, %rdi
	call	_ZN5boost7context21basic_fixedsize_stackINS0_12stack_traitsEE8allocateEv
	movq	%rax, -80(%rbp)
	movq	%rdx, -72(%rbp)
	.loc 4 159 0
	movq	-72(%rbp), %rax
	subq	$32, %rax
	.loc 4 160 0
	movb	$0, %al
	.loc 4 158 0
	movq	%rax, -128(%rbp)
	.loc 4 162 0
	movq	-80(%rbp), %rax
	movq	-72(%rbp), %rdx
	movq	%rax, -64(%rbp)
	movq	%rdx, -56(%rbp)
	movq	-136(%rbp), %rax
	movq	%rax, %rdi
	call	_ZSt7forwardIN5boost7context21basic_fixedsize_stackINS1_12stack_traitsEEEEOT_RNSt16remove_referenceIS5_E4typeE
	movq	%rax, %r12
	movq	-144(%rbp), %rax
	movq	%rax, %rdi
	call	_ZSt7forwardIRFN5boost7context5fiberEOS2_EEOT_RNSt16remove_referenceIS6_E4typeE
	movq	%rax, %r13
	movq	-128(%rbp), %rax
	movq	%rax, %rsi
	movl	$32, %edi
	call	_ZnwmPv
	movq	%rax, %rbx
	testq	%rbx, %rbx
	je	.L53
	.loc 4 162 0 is_stmt 0 discriminator 1
	movq	-64(%rbp), %rdx
	movq	-56(%rbp), %rax
	movq	%r13, %r8
	movq	%r12, %rcx
	movq	%rdx, %rsi
	movq	%rax, %rdx
	movq	%rbx, %rdi
	call	_ZN5boost7context6detail12fiber_recordINS0_5fiberENS0_21basic_fixedsize_stackINS0_12stack_traitsEEERFS3_OS3_EEC1ENS0_13stack_contextEOS6_S9_
	movq	%rbx, %rax
	jmp	.L54
.L53:
	.loc 4 162 0 discriminator 2
	movq	%rbx, %rax
.L54:
	.loc 4 162 0 discriminator 4
	movq	%rax, -120(%rbp)
	.loc 4 167 0 is_stmt 1 discriminator 4
	movq	-128(%rbp), %rax
	subq	$64, %rax
	.loc 4 166 0 discriminator 4
	movq	%rax, -112(%rbp)
	.loc 4 169 0 discriminator 4
	movq	-72(%rbp), %rax
	movq	%rax, %rdx
	movq	-80(%rbp), %rax
	subq	%rax, %rdx
	movq	%rdx, %rax
	.loc 4 168 0 discriminator 4
	movq	%rax, -104(%rbp)
	.loc 4 171 0 discriminator 4
	movq	-112(%rbp), %rdx
	movq	-104(%rbp), %rax
	subq	%rax, %rdx
	movq	%rdx, %rax
	movq	%rax, -96(%rbp)
	.loc 4 172 0 discriminator 4
	movq	-96(%rbp), %rcx
	movq	-112(%rbp), %rax
	leaq	_ZN5boost7context6detail11fiber_entryINS1_12fiber_recordINS0_5fiberENS0_21basic_fixedsize_stackINS0_12stack_traitsEEERFS4_OS4_EEEEEvNS1_10transfer_tE(%rip), %rdx
	movq	%rcx, %rsi
	movq	%rax, %rdi
	call	make_fcontext@PLT
	movq	%rax, -88(%rbp)
	.loc 4 173 0 discriminator 4
	cmpq	$0, -88(%rbp)
	jne	.L55
	.loc 4 173 0 is_stmt 0 discriminator 1
	leaq	_ZZN5boost7context6detail13create_fiber1INS1_12fiber_recordINS0_5fiberENS0_21basic_fixedsize_stackINS0_12stack_traitsEEERFS4_OS4_EEES7_SA_EEPvOT0_OT1_E19__PRETTY_FUNCTION__(%rip), %rcx
	movl	$173, %edx
	leaq	.LC2(%rip), %rsi
	leaq	.LC9(%rip), %rdi
	call	__assert_fail@PLT
.L55:
	.loc 4 175 0 is_stmt 1
	movq	-120(%rbp), %rdx
	movq	-88(%rbp), %rax
	movq	%rdx, %rsi
	movq	%rax, %rdi
	call	jump_fcontext@PLT
	.loc 4 176 0
	movq	-40(%rbp), %rcx
	xorq	%fs:40, %rcx
	je	.L57
	call	__stack_chk_fail@PLT
.L57:
	addq	$120, %rsp
	popq	%rbx
	popq	%r12
	popq	%r13
	popq	%rbp
	.cfi_def_cfa 7, 8
	ret
	.cfi_endproc
.LFE3199:
	.size	_ZN5boost7context6detail13create_fiber1INS1_12fiber_recordINS0_5fiberENS0_21basic_fixedsize_stackINS0_12stack_traitsEEERFS4_OS4_EEES7_SA_EEPvOT0_OT1_, .-_ZN5boost7context6detail13create_fiber1INS1_12fiber_recordINS0_5fiberENS0_21basic_fixedsize_stackINS0_12stack_traitsEEERFS4_OS4_EEES7_SA_EEPvOT0_OT1_
	.section	.text._ZN5boost7context21basic_fixedsize_stackINS0_12stack_traitsEE8allocateEv,"axG",@progbits,_ZN5boost7context21basic_fixedsize_stackINS0_12stack_traitsEE8allocateEv,comdat
	.align 2
	.weak	_ZN5boost7context21basic_fixedsize_stackINS0_12stack_traitsEE8allocateEv
	.type	_ZN5boost7context21basic_fixedsize_stackINS0_12stack_traitsEE8allocateEv, @function
_ZN5boost7context21basic_fixedsize_stackINS0_12stack_traitsEE8allocateEv:
.LFB3218:
	.loc 8 44 0
	.cfi_startproc
	pushq	%rbp
	.cfi_def_cfa_offset 16
	.cfi_offset 6, -16
	movq	%rsp, %rbp
	.cfi_def_cfa_register 6
	pushq	%rbx
	subq	$72, %rsp
	.cfi_offset 3, -24
	movq	%rdi, -72(%rbp)
	.loc 8 44 0
	movq	%fs:40, %rax
	movq	%rax, -24(%rbp)
	xorl	%eax, %eax
	.loc 8 45 0
	movq	-72(%rbp), %rax
	movq	(%rax), %rax
	movq	%rax, %rdi
	call	malloc@PLT
	movq	%rax, -56(%rbp)
	.loc 8 46 0
	cmpq	$0, -56(%rbp)
	jne	.L59
	.loc 8 47 0
	movl	$8, %edi
	call	__cxa_allocate_exception@PLT
	movq	%rax, %rbx
	movq	%rbx, %rdi
	call	_ZNSt9bad_allocC1Ev
	movq	_ZNSt9bad_allocD1Ev@GOTPCREL(%rip), %rax
	movq	%rax, %rdx
	leaq	_ZTISt9bad_alloc(%rip), %rsi
	movq	%rbx, %rdi
	call	__cxa_throw@PLT
.L59:
	.loc 8 49 0
	movq	$0, -48(%rbp)
	movq	$0, -40(%rbp)
	.loc 8 50 0
	movq	-72(%rbp), %rax
	movq	(%rax), %rax
	movq	%rax, -48(%rbp)
	.loc 8 51 0
	movq	-48(%rbp), %rdx
	movq	-56(%rbp), %rax
	addq	%rdx, %rax
	movq	%rax, -40(%rbp)
	.loc 8 55 0
	movq	-48(%rbp), %rax
	movq	-40(%rbp), %rdx
	.loc 8 56 0
	movq	-24(%rbp), %rcx
	xorq	%fs:40, %rcx
	je	.L61
	call	__stack_chk_fail@PLT
.L61:
	addq	$72, %rsp
	popq	%rbx
	popq	%rbp
	.cfi_def_cfa 7, 8
	ret
	.cfi_endproc
.LFE3218:
	.size	_ZN5boost7context21basic_fixedsize_stackINS0_12stack_traitsEE8allocateEv, .-_ZN5boost7context21basic_fixedsize_stackINS0_12stack_traitsEE8allocateEv
	.section	.text._ZN5boost7context6detail12fiber_recordINS0_5fiberENS0_21basic_fixedsize_stackINS0_12stack_traitsEEERFS3_OS3_EEC2ENS0_13stack_contextEOS6_S9_,"axG",@progbits,_ZN5boost7context6detail12fiber_recordINS0_5fiberENS0_21basic_fixedsize_stackINS0_12stack_traitsEEERFS3_OS3_EEC5ENS0_13stack_contextEOS6_S9_,comdat
	.align 2
	.weak	_ZN5boost7context6detail12fiber_recordINS0_5fiberENS0_21basic_fixedsize_stackINS0_12stack_traitsEEERFS3_OS3_EEC2ENS0_13stack_contextEOS6_S9_
	.type	_ZN5boost7context6detail12fiber_recordINS0_5fiberENS0_21basic_fixedsize_stackINS0_12stack_traitsEEERFS3_OS3_EEC2ENS0_13stack_contextEOS6_S9_, @function
_ZN5boost7context6detail12fiber_recordINS0_5fiberENS0_21basic_fixedsize_stackINS0_12stack_traitsEEERFS3_OS3_EEC2ENS0_13stack_contextEOS6_S9_:
.LFB3226:
	.loc 4 125 0
	.cfi_startproc
	pushq	%rbp
	.cfi_def_cfa_offset 16
	.cfi_offset 6, -16
	movq	%rsp, %rbp
	.cfi_def_cfa_register 6
	subq	$48, %rsp
	movq	%rdi, -8(%rbp)
	movq	%rsi, %rax
	movq	%rdx, %rsi
	movq	%rsi, %rdx
	movq	%rax, -32(%rbp)
	movq	%rdx, -24(%rbp)
	movq	%rcx, -16(%rbp)
	movq	%r8, -40(%rbp)
.LBB14:
	.loc 4 129 0
	movq	-8(%rbp), %rcx
	movq	-32(%rbp), %rax
	movq	-24(%rbp), %rdx
	movq	%rax, (%rcx)
	movq	%rdx, 8(%rcx)
	.loc 4 128 0
	movq	-16(%rbp), %rax
	movq	%rax, %rdi
	call	_ZSt7forwardIN5boost7context21basic_fixedsize_stackINS1_12stack_traitsEEEEOT_RNSt16remove_referenceIS5_E4typeE
	movq	%rax, %rdx
	.loc 4 129 0
	movq	-8(%rbp), %rax
	movq	(%rdx), %rdx
	movq	%rdx, 16(%rax)
	movq	-40(%rbp), %rax
	movq	%rax, %rdi
	call	_ZSt7forwardIRFN5boost7context5fiberEOS2_EEOT_RNSt16remove_referenceIS6_E4typeE
	movq	%rax, %rdx
	movq	-8(%rbp), %rax
	movq	%rdx, 24(%rax)
.LBE14:
	.loc 4 130 0
	nop
	leave
	.cfi_def_cfa 7, 8
	ret
	.cfi_endproc
.LFE3226:
	.size	_ZN5boost7context6detail12fiber_recordINS0_5fiberENS0_21basic_fixedsize_stackINS0_12stack_traitsEEERFS3_OS3_EEC2ENS0_13stack_contextEOS6_S9_, .-_ZN5boost7context6detail12fiber_recordINS0_5fiberENS0_21basic_fixedsize_stackINS0_12stack_traitsEEERFS3_OS3_EEC2ENS0_13stack_contextEOS6_S9_
	.weak	_ZN5boost7context6detail12fiber_recordINS0_5fiberENS0_21basic_fixedsize_stackINS0_12stack_traitsEEERFS3_OS3_EEC1ENS0_13stack_contextEOS6_S9_
	.set	_ZN5boost7context6detail12fiber_recordINS0_5fiberENS0_21basic_fixedsize_stackINS0_12stack_traitsEEERFS3_OS3_EEC1ENS0_13stack_contextEOS6_S9_,_ZN5boost7context6detail12fiber_recordINS0_5fiberENS0_21basic_fixedsize_stackINS0_12stack_traitsEEERFS3_OS3_EEC2ENS0_13stack_contextEOS6_S9_
	.section	.rodata
.LC10:
	.string	"nullptr != t.fctx"
.LC11:
	.string	"nullptr != rec"
	.align 8
.LC12:
	.string	"(false)&&(\"context already terminated\")"
	.section	.text._ZN5boost7context6detail11fiber_entryINS1_12fiber_recordINS0_5fiberENS0_21basic_fixedsize_stackINS0_12stack_traitsEEERFS4_OS4_EEEEEvNS1_10transfer_tE,"axG",@progbits,_ZN5boost7context6detail11fiber_entryINS1_12fiber_recordINS0_5fiberENS0_21basic_fixedsize_stackINS0_12stack_traitsEEERFS4_OS4_EEEEEvNS1_10transfer_tE,comdat
	.weak	_ZN5boost7context6detail11fiber_entryINS1_12fiber_recordINS0_5fiberENS0_21basic_fixedsize_stackINS0_12stack_traitsEEERFS4_OS4_EEEEEvNS1_10transfer_tE
	.type	_ZN5boost7context6detail11fiber_entryINS1_12fiber_recordINS0_5fiberENS0_21basic_fixedsize_stackINS0_12stack_traitsEEERFS4_OS4_EEEEEvNS1_10transfer_tE, @function
_ZN5boost7context6detail11fiber_entryINS1_12fiber_recordINS0_5fiberENS0_21basic_fixedsize_stackINS0_12stack_traitsEEERFS4_OS4_EEEEEvNS1_10transfer_tE:
.LFB3228:
	.loc 4 71 0
	.cfi_startproc
	.cfi_personality 0x9b,DW.ref.__gxx_personality_v0
	.cfi_lsda 0x1b,.LLSDA3228
	pushq	%rbp
	.cfi_def_cfa_offset 16
	.cfi_offset 6, -16
	movq	%rsp, %rbp
	.cfi_def_cfa_register 6
	subq	$32, %rsp
	movq	%rdi, %rax
	movq	%rsi, %rcx
	movq	%rcx, %rdx
	movq	%rax, -32(%rbp)
	movq	%rdx, -24(%rbp)
	.loc 4 73 0
	movq	-24(%rbp), %rax
	movq	%rax, -16(%rbp)
	.loc 4 74 0
	movq	-32(%rbp), %rax
	testq	%rax, %rax
	jne	.L64
	.loc 4 74 0 is_stmt 0 discriminator 1
	leaq	_ZZN5boost7context6detail11fiber_entryINS1_12fiber_recordINS0_5fiberENS0_21basic_fixedsize_stackINS0_12stack_traitsEEERFS4_OS4_EEEEEvNS1_10transfer_tEE19__PRETTY_FUNCTION__(%rip), %rcx
	movl	$74, %edx
	leaq	.LC2(%rip), %rsi
	leaq	.LC10(%rip), %rdi
	call	__assert_fail@PLT
.L64:
	.loc 4 75 0 is_stmt 1
	cmpq	$0, -16(%rbp)
	jne	.L65
	.loc 4 75 0 is_stmt 0 discriminator 1
	leaq	_ZZN5boost7context6detail11fiber_entryINS1_12fiber_recordINS0_5fiberENS0_21basic_fixedsize_stackINS0_12stack_traitsEEERFS4_OS4_EEEEEvNS1_10transfer_tEE19__PRETTY_FUNCTION__(%rip), %rcx
	movl	$75, %edx
	leaq	.LC2(%rip), %rsi
	leaq	.LC11(%rip), %rdi
	call	__assert_fail@PLT
.L65:
	.loc 4 78 0 is_stmt 1
	movq	-32(%rbp), %rax
	movl	$0, %esi
	movq	%rax, %rdi
.LEHB3:
	call	jump_fcontext@PLT
	movq	%rax, -32(%rbp)
	movq	%rdx, -24(%rbp)
	.loc 4 80 0
	movq	-32(%rbp), %rdx
	movq	-16(%rbp), %rax
	movq	%rdx, %rsi
	movq	%rax, %rdi
	call	_ZN5boost7context6detail12fiber_recordINS0_5fiberENS0_21basic_fixedsize_stackINS0_12stack_traitsEEERFS3_OS3_EE3runEPv
.LEHE3:
	movq	%rax, -32(%rbp)
.L70:
	.loc 4 87 0
	movq	-32(%rbp), %rax
	testq	%rax, %rax
	jne	.L66
	.loc 4 87 0 is_stmt 0 discriminator 1
	leaq	_ZZN5boost7context6detail11fiber_entryINS1_12fiber_recordINS0_5fiberENS0_21basic_fixedsize_stackINS0_12stack_traitsEEERFS4_OS4_EEEEEvNS1_10transfer_tEE19__PRETTY_FUNCTION__(%rip), %rcx
	movl	$87, %edx
	leaq	.LC2(%rip), %rsi
	leaq	.LC10(%rip), %rdi
	call	__assert_fail@PLT
.L66:
	.loc 4 89 0 is_stmt 1
	movq	-32(%rbp), %rax
	movq	-16(%rbp), %rcx
	leaq	_ZN5boost7context6detail10fiber_exitINS1_12fiber_recordINS0_5fiberENS0_21basic_fixedsize_stackINS0_12stack_traitsEEERFS4_OS4_EEEEENS1_10transfer_tESC_(%rip), %rdx
	movq	%rcx, %rsi
	movq	%rax, %rdi
	call	ontop_fcontext@PLT
	.loc 4 90 0
	leaq	_ZZN5boost7context6detail11fiber_entryINS1_12fiber_recordINS0_5fiberENS0_21basic_fixedsize_stackINS0_12stack_traitsEEERFS4_OS4_EEEEEvNS1_10transfer_tEE19__PRETTY_FUNCTION__(%rip), %rcx
	movl	$90, %edx
	leaq	.LC2(%rip), %rsi
	leaq	.LC12(%rip), %rdi
	call	__assert_fail@PLT
.L71:
	cmpq	$1, %rdx
	je	.L69
	.loc 4 71 0
	call	_ZSt9terminatev@PLT
.L69:
.LBB15:
	.loc 4 81 0
	movq	%rax, %rdi
	call	__cxa_begin_catch@PLT
	movq	%rax, -8(%rbp)
	.loc 4 82 0
	movq	-8(%rbp), %rax
	movq	(%rax), %rax
	movq	%rax, -32(%rbp)
	movq	$0, -24(%rbp)
	.loc 4 84 0
	movq	-8(%rbp), %rax
	movb	$1, 8(%rax)
	.loc 4 81 0
	call	__cxa_end_catch@PLT
	jmp	.L70
.LBE15:
	.cfi_endproc
.LFE3228:
	.section	.gcc_except_table
	.align 4
.LLSDA3228:
	.byte	0xff
	.byte	0x9b
	.uleb128 .LLSDATT3228-.LLSDATTD3228
.LLSDATTD3228:
	.byte	0x1
	.uleb128 .LLSDACSE3228-.LLSDACSB3228
.LLSDACSB3228:
	.uleb128 .LEHB3-.LFB3228
	.uleb128 .LEHE3-.LEHB3
	.uleb128 .L71-.LFB3228
	.uleb128 0x3
.LLSDACSE3228:
	.byte	0
	.byte	0
	.byte	0x1
	.byte	0x7d
	.align 4
	.long	DW.ref._ZTIN5boost7context6detail13forced_unwindE-.
.LLSDATT3228:
	.section	.text._ZN5boost7context6detail11fiber_entryINS1_12fiber_recordINS0_5fiberENS0_21basic_fixedsize_stackINS0_12stack_traitsEEERFS4_OS4_EEEEEvNS1_10transfer_tE,"axG",@progbits,_ZN5boost7context6detail11fiber_entryINS1_12fiber_recordINS0_5fiberENS0_21basic_fixedsize_stackINS0_12stack_traitsEEERFS4_OS4_EEEEEvNS1_10transfer_tE,comdat
	.size	_ZN5boost7context6detail11fiber_entryINS1_12fiber_recordINS0_5fiberENS0_21basic_fixedsize_stackINS0_12stack_traitsEEERFS4_OS4_EEEEEvNS1_10transfer_tE, .-_ZN5boost7context6detail11fiber_entryINS1_12fiber_recordINS0_5fiberENS0_21basic_fixedsize_stackINS0_12stack_traitsEEERFS4_OS4_EEEEEvNS1_10transfer_tE
	.section	.text._ZN5boost7context6detail12fiber_recordINS0_5fiberENS0_21basic_fixedsize_stackINS0_12stack_traitsEEERFS3_OS3_EE3runEPv,"axG",@progbits,_ZN5boost7context6detail12fiber_recordINS0_5fiberENS0_21basic_fixedsize_stackINS0_12stack_traitsEEERFS3_OS3_EE3runEPv,comdat
	.align 2
	.weak	_ZN5boost7context6detail12fiber_recordINS0_5fiberENS0_21basic_fixedsize_stackINS0_12stack_traitsEEERFS3_OS3_EE3runEPv
	.type	_ZN5boost7context6detail12fiber_recordINS0_5fiberENS0_21basic_fixedsize_stackINS0_12stack_traitsEEERFS3_OS3_EE3runEPv, @function
_ZN5boost7context6detail12fiber_recordINS0_5fiberENS0_21basic_fixedsize_stackINS0_12stack_traitsEEERFS3_OS3_EE3runEPv:
.LFB3238:
	.loc 4 139 0
	.cfi_startproc
	.cfi_personality 0x9b,DW.ref.__gxx_personality_v0
	.cfi_lsda 0x1b,.LLSDA3238
	pushq	%rbp
	.cfi_def_cfa_offset 16
	.cfi_offset 6, -16
	movq	%rsp, %rbp
	.cfi_def_cfa_register 6
	pushq	%rbx
	subq	$56, %rsp
	.cfi_offset 3, -24
	movq	%rdi, -56(%rbp)
	movq	%rsi, -64(%rbp)
	.loc 4 139 0
	movq	%fs:40, %rax
	movq	%rax, -24(%rbp)
	xorl	%eax, %eax
	.loc 4 142 0
	movq	-64(%rbp), %rdx
	leaq	-32(%rbp), %rax
	movq	%rdx, %rsi
	movq	%rax, %rdi
	call	_ZN5boost7context5fiberC1EPv
	movq	-56(%rbp), %rax
	leaq	24(%rax), %rcx
	leaq	-40(%rbp), %rax
	leaq	-32(%rbp), %rdx
	movq	%rcx, %rsi
	movq	%rax, %rdi
.LEHB4:
	call	_ZN5boost7context6detail6invokeIRPFNS0_5fiberEOS3_EJS3_EEENSt9enable_ifIXntsrSt17is_member_pointerINSt5decayIT_E4typeEE5valueENSt9result_ofIFOSB_DpOT0_EE4typeEE4typeESG_SJ_
.LEHE4:
	leaq	-32(%rbp), %rax
	movq	%rax, %rdi
	call	_ZN5boost7context5fiberD1Ev
	.loc 4 147 0
	movq	$0, -32(%rbp)
	leaq	-32(%rbp), %rdx
	leaq	-40(%rbp), %rax
	movq	%rdx, %rsi
	movq	%rax, %rdi
	call	_ZN5boost7context6detail8exchangeIPvDnEET_RS4_OT0_
	movq	%rax, %rbx
	.loc 4 142 0
	leaq	-40(%rbp), %rax
	movq	%rax, %rdi
	call	_ZN5boost7context5fiberD1Ev
	.loc 4 147 0
	movq	%rbx, %rax
	.loc 4 151 0
	movq	-24(%rbp), %rcx
	xorq	%fs:40, %rcx
	je	.L75
	jmp	.L77
.L76:
	movq	%rax, %rbx
	leaq	-32(%rbp), %rax
	movq	%rax, %rdi
	call	_ZN5boost7context5fiberD1Ev
	movq	%rbx, %rax
	movq	%rax, %rdi
.LEHB5:
	call	_Unwind_Resume@PLT
.LEHE5:
.L77:
	call	__stack_chk_fail@PLT
.L75:
	addq	$56, %rsp
	popq	%rbx
	popq	%rbp
	.cfi_def_cfa 7, 8
	ret
	.cfi_endproc
.LFE3238:
	.section	.gcc_except_table
.LLSDA3238:
	.byte	0xff
	.byte	0xff
	.byte	0x1
	.uleb128 .LLSDACSE3238-.LLSDACSB3238
.LLSDACSB3238:
	.uleb128 .LEHB4-.LFB3238
	.uleb128 .LEHE4-.LEHB4
	.uleb128 .L76-.LFB3238
	.uleb128 0
	.uleb128 .LEHB5-.LFB3238
	.uleb128 .LEHE5-.LEHB5
	.uleb128 0
	.uleb128 0
.LLSDACSE3238:
	.section	.text._ZN5boost7context6detail12fiber_recordINS0_5fiberENS0_21basic_fixedsize_stackINS0_12stack_traitsEEERFS3_OS3_EE3runEPv,"axG",@progbits,_ZN5boost7context6detail12fiber_recordINS0_5fiberENS0_21basic_fixedsize_stackINS0_12stack_traitsEEERFS3_OS3_EE3runEPv,comdat
	.size	_ZN5boost7context6detail12fiber_recordINS0_5fiberENS0_21basic_fixedsize_stackINS0_12stack_traitsEEERFS3_OS3_EE3runEPv, .-_ZN5boost7context6detail12fiber_recordINS0_5fiberENS0_21basic_fixedsize_stackINS0_12stack_traitsEEERFS3_OS3_EE3runEPv
	.section	.text._ZN5boost7context6detail10fiber_exitINS1_12fiber_recordINS0_5fiberENS0_21basic_fixedsize_stackINS0_12stack_traitsEEERFS4_OS4_EEEEENS1_10transfer_tESC_,"axG",@progbits,_ZN5boost7context6detail10fiber_exitINS1_12fiber_recordINS0_5fiberENS0_21basic_fixedsize_stackINS0_12stack_traitsEEERFS4_OS4_EEEEENS1_10transfer_tESC_,comdat
	.weak	_ZN5boost7context6detail10fiber_exitINS1_12fiber_recordINS0_5fiberENS0_21basic_fixedsize_stackINS0_12stack_traitsEEERFS4_OS4_EEEEENS1_10transfer_tESC_
	.type	_ZN5boost7context6detail10fiber_exitINS1_12fiber_recordINS0_5fiberENS0_21basic_fixedsize_stackINS0_12stack_traitsEEERFS4_OS4_EEEEENS1_10transfer_tESC_, @function
_ZN5boost7context6detail10fiber_exitINS1_12fiber_recordINS0_5fiberENS0_21basic_fixedsize_stackINS0_12stack_traitsEEERFS4_OS4_EEEEENS1_10transfer_tESC_:
.LFB3239:
	.loc 4 63 0
	.cfi_startproc
	pushq	%rbp
	.cfi_def_cfa_offset 16
	.cfi_offset 6, -16
	movq	%rsp, %rbp
	.cfi_def_cfa_register 6
	pushq	%r13
	pushq	%r12
	subq	$32, %rsp
	.cfi_offset 13, -24
	.cfi_offset 12, -32
	movq	%rdi, %rax
	movq	%rsi, %rcx
	movq	%rcx, %rdx
	movq	%rax, -48(%rbp)
	movq	%rdx, -40(%rbp)
	.loc 4 64 0
	movq	-40(%rbp), %rax
	movq	%rax, -24(%rbp)
	.loc 4 66 0
	movq	-24(%rbp), %rax
	movq	%rax, %rdi
	call	_ZN5boost7context6detail12fiber_recordINS0_5fiberENS0_21basic_fixedsize_stackINS0_12stack_traitsEEERFS3_OS3_EE10deallocateEv
	.loc 4 67 0
	movl	$0, %r12d
	movl	$0, %r13d
	movq	%r12, %rax
	movq	%r13, %rdx
	.loc 4 68 0
	addq	$32, %rsp
	popq	%r12
	popq	%r13
	popq	%rbp
	.cfi_def_cfa 7, 8
	ret
	.cfi_endproc
.LFE3239:
	.size	_ZN5boost7context6detail10fiber_exitINS1_12fiber_recordINS0_5fiberENS0_21basic_fixedsize_stackINS0_12stack_traitsEEERFS4_OS4_EEEEENS1_10transfer_tESC_, .-_ZN5boost7context6detail10fiber_exitINS1_12fiber_recordINS0_5fiberENS0_21basic_fixedsize_stackINS0_12stack_traitsEEERFS4_OS4_EEEEENS1_10transfer_tESC_
	.section	.text._ZN5boost7context6detail6invokeIRPFNS0_5fiberEOS3_EJS3_EEENSt9enable_ifIXntsrSt17is_member_pointerINSt5decayIT_E4typeEE5valueENSt9result_ofIFOSB_DpOT0_EE4typeEE4typeESG_SJ_,"axG",@progbits,_ZN5boost7context6detail6invokeIRPFNS0_5fiberEOS3_EJS3_EEENSt9enable_ifIXntsrSt17is_member_pointerINSt5decayIT_E4typeEE5valueENSt9result_ofIFOSB_DpOT0_EE4typeEE4typeESG_SJ_,comdat
	.weak	_ZN5boost7context6detail6invokeIRPFNS0_5fiberEOS3_EJS3_EEENSt9enable_ifIXntsrSt17is_member_pointerINSt5decayIT_E4typeEE5valueENSt9result_ofIFOSB_DpOT0_EE4typeEE4typeESG_SJ_
	.type	_ZN5boost7context6detail6invokeIRPFNS0_5fiberEOS3_EJS3_EEENSt9enable_ifIXntsrSt17is_member_pointerINSt5decayIT_E4typeEE5valueENSt9result_ofIFOSB_DpOT0_EE4typeEE4typeESG_SJ_, @function
_ZN5boost7context6detail6invokeIRPFNS0_5fiberEOS3_EJS3_EEENSt9enable_ifIXntsrSt17is_member_pointerINSt5decayIT_E4typeEE5valueENSt9result_ofIFOSB_DpOT0_EE4typeEE4typeESG_SJ_:
.LFB3251:
	.file 9 "/usr/local/include/boost/context/detail/invoke.hpp"
	.loc 9 40 0
	.cfi_startproc
	pushq	%rbp
	.cfi_def_cfa_offset 16
	.cfi_offset 6, -16
	movq	%rsp, %rbp
	.cfi_def_cfa_register 6
	pushq	%rbx
	subq	$56, %rsp
	.cfi_offset 3, -24
	movq	%rdi, -40(%rbp)
	movq	%rsi, -48(%rbp)
	movq	%rdx, -56(%rbp)
	.loc 9 40 0
	movq	%fs:40, %rax
	movq	%rax, -24(%rbp)
	xorl	%eax, %eax
	.loc 9 41 0
	movq	-48(%rbp), %rax
	movq	%rax, %rdi
	call	_ZSt7forwardIRPFN5boost7context5fiberEOS2_EEOT_RNSt16remove_referenceIS7_E4typeE
	movq	(%rax), %rbx
	movq	-56(%rbp), %rax
	movq	%rax, %rdi
	call	_ZSt7forwardIN5boost7context5fiberEEOT_RNSt16remove_referenceIS3_E4typeE
	movq	%rax, %rdx
	movq	-40(%rbp), %rax
	movq	%rdx, %rsi
	movq	%rax, %rdi
	call	*%rbx
.LVL0:
	.loc 9 42 0
	movq	-40(%rbp), %rax
	movq	-24(%rbp), %rcx
	xorq	%fs:40, %rcx
	je	.L82
	call	__stack_chk_fail@PLT
.L82:
	addq	$56, %rsp
	popq	%rbx
	popq	%rbp
	.cfi_def_cfa 7, 8
	ret
	.cfi_endproc
.LFE3251:
	.size	_ZN5boost7context6detail6invokeIRPFNS0_5fiberEOS3_EJS3_EEENSt9enable_ifIXntsrSt17is_member_pointerINSt5decayIT_E4typeEE5valueENSt9result_ofIFOSB_DpOT0_EE4typeEE4typeESG_SJ_, .-_ZN5boost7context6detail6invokeIRPFNS0_5fiberEOS3_EJS3_EEENSt9enable_ifIXntsrSt17is_member_pointerINSt5decayIT_E4typeEE5valueENSt9result_ofIFOSB_DpOT0_EE4typeEE4typeESG_SJ_
	.section	.text._ZN5boost7context6detail12fiber_recordINS0_5fiberENS0_21basic_fixedsize_stackINS0_12stack_traitsEEERFS3_OS3_EE10deallocateEv,"axG",@progbits,_ZN5boost7context6detail12fiber_recordINS0_5fiberENS0_21basic_fixedsize_stackINS0_12stack_traitsEEERFS3_OS3_EE10deallocateEv,comdat
	.align 2
	.weak	_ZN5boost7context6detail12fiber_recordINS0_5fiberENS0_21basic_fixedsize_stackINS0_12stack_traitsEEERFS3_OS3_EE10deallocateEv
	.type	_ZN5boost7context6detail12fiber_recordINS0_5fiberENS0_21basic_fixedsize_stackINS0_12stack_traitsEEERFS3_OS3_EE10deallocateEv, @function
_ZN5boost7context6detail12fiber_recordINS0_5fiberENS0_21basic_fixedsize_stackINS0_12stack_traitsEEERFS3_OS3_EE10deallocateEv:
.LFB3252:
	.loc 4 135 0
	.cfi_startproc
	pushq	%rbp
	.cfi_def_cfa_offset 16
	.cfi_offset 6, -16
	movq	%rsp, %rbp
	.cfi_def_cfa_register 6
	subq	$16, %rsp
	movq	%rdi, -8(%rbp)
	.loc 4 136 0
	movq	-8(%rbp), %rax
	movq	%rax, %rdi
	call	_ZN5boost7context6detail12fiber_recordINS0_5fiberENS0_21basic_fixedsize_stackINS0_12stack_traitsEEERFS3_OS3_EE7destroyEPSA_
	.loc 4 137 0
	nop
	leave
	.cfi_def_cfa 7, 8
	ret
	.cfi_endproc
.LFE3252:
	.size	_ZN5boost7context6detail12fiber_recordINS0_5fiberENS0_21basic_fixedsize_stackINS0_12stack_traitsEEERFS3_OS3_EE10deallocateEv, .-_ZN5boost7context6detail12fiber_recordINS0_5fiberENS0_21basic_fixedsize_stackINS0_12stack_traitsEEERFS3_OS3_EE10deallocateEv
	.section	.text._ZSt7forwardIRPFN5boost7context5fiberEOS2_EEOT_RNSt16remove_referenceIS7_E4typeE,"axG",@progbits,_ZSt7forwardIRPFN5boost7context5fiberEOS2_EEOT_RNSt16remove_referenceIS7_E4typeE,comdat
	.weak	_ZSt7forwardIRPFN5boost7context5fiberEOS2_EEOT_RNSt16remove_referenceIS7_E4typeE
	.type	_ZSt7forwardIRPFN5boost7context5fiberEOS2_EEOT_RNSt16remove_referenceIS7_E4typeE, @function
_ZSt7forwardIRPFN5boost7context5fiberEOS2_EEOT_RNSt16remove_referenceIS7_E4typeE:
.LFB3257:
	.loc 5 73 0
	.cfi_startproc
	pushq	%rbp
	.cfi_def_cfa_offset 16
	.cfi_offset 6, -16
	movq	%rsp, %rbp
	.cfi_def_cfa_register 6
	movq	%rdi, -8(%rbp)
	.loc 5 74 0
	movq	-8(%rbp), %rax
	popq	%rbp
	.cfi_def_cfa 7, 8
	ret
	.cfi_endproc
.LFE3257:
	.size	_ZSt7forwardIRPFN5boost7context5fiberEOS2_EEOT_RNSt16remove_referenceIS7_E4typeE, .-_ZSt7forwardIRPFN5boost7context5fiberEOS2_EEOT_RNSt16remove_referenceIS7_E4typeE
	.section	.text._ZSt7forwardIN5boost7context5fiberEEOT_RNSt16remove_referenceIS3_E4typeE,"axG",@progbits,_ZSt7forwardIN5boost7context5fiberEEOT_RNSt16remove_referenceIS3_E4typeE,comdat
	.weak	_ZSt7forwardIN5boost7context5fiberEEOT_RNSt16remove_referenceIS3_E4typeE
	.type	_ZSt7forwardIN5boost7context5fiberEEOT_RNSt16remove_referenceIS3_E4typeE, @function
_ZSt7forwardIN5boost7context5fiberEEOT_RNSt16remove_referenceIS3_E4typeE:
.LFB3258:
	.loc 5 73 0
	.cfi_startproc
	pushq	%rbp
	.cfi_def_cfa_offset 16
	.cfi_offset 6, -16
	movq	%rsp, %rbp
	.cfi_def_cfa_register 6
	movq	%rdi, -8(%rbp)
	.loc 5 74 0
	movq	-8(%rbp), %rax
	popq	%rbp
	.cfi_def_cfa 7, 8
	ret
	.cfi_endproc
.LFE3258:
	.size	_ZSt7forwardIN5boost7context5fiberEEOT_RNSt16remove_referenceIS3_E4typeE, .-_ZSt7forwardIN5boost7context5fiberEEOT_RNSt16remove_referenceIS3_E4typeE
	.section	.text._ZSt4moveIRN5boost7context21basic_fixedsize_stackINS1_12stack_traitsEEEEONSt16remove_referenceIT_E4typeEOS7_,"axG",@progbits,_ZSt4moveIRN5boost7context21basic_fixedsize_stackINS1_12stack_traitsEEEEONSt16remove_referenceIT_E4typeEOS7_,comdat
	.weak	_ZSt4moveIRN5boost7context21basic_fixedsize_stackINS1_12stack_traitsEEEEONSt16remove_referenceIT_E4typeEOS7_
	.type	_ZSt4moveIRN5boost7context21basic_fixedsize_stackINS1_12stack_traitsEEEEONSt16remove_referenceIT_E4typeEOS7_, @function
_ZSt4moveIRN5boost7context21basic_fixedsize_stackINS1_12stack_traitsEEEEONSt16remove_referenceIT_E4typeEOS7_:
.LFB3260:
	.loc 5 98 0
	.cfi_startproc
	pushq	%rbp
	.cfi_def_cfa_offset 16
	.cfi_offset 6, -16
	movq	%rsp, %rbp
	.cfi_def_cfa_register 6
	movq	%rdi, -8(%rbp)
	.loc 5 99 0
	movq	-8(%rbp), %rax
	popq	%rbp
	.cfi_def_cfa 7, 8
	ret
	.cfi_endproc
.LFE3260:
	.size	_ZSt4moveIRN5boost7context21basic_fixedsize_stackINS1_12stack_traitsEEEEONSt16remove_referenceIT_E4typeEOS7_, .-_ZSt4moveIRN5boost7context21basic_fixedsize_stackINS1_12stack_traitsEEEEONSt16remove_referenceIT_E4typeEOS7_
	.section	.text._ZN5boost7context6detail12fiber_recordINS0_5fiberENS0_21basic_fixedsize_stackINS0_12stack_traitsEEERFS3_OS3_EE7destroyEPSA_,"axG",@progbits,_ZN5boost7context6detail12fiber_recordINS0_5fiberENS0_21basic_fixedsize_stackINS0_12stack_traitsEEERFS3_OS3_EE7destroyEPSA_,comdat
	.weak	_ZN5boost7context6detail12fiber_recordINS0_5fiberENS0_21basic_fixedsize_stackINS0_12stack_traitsEEERFS3_OS3_EE7destroyEPSA_
	.type	_ZN5boost7context6detail12fiber_recordINS0_5fiberENS0_21basic_fixedsize_stackINS0_12stack_traitsEEERFS3_OS3_EE7destroyEPSA_, @function
_ZN5boost7context6detail12fiber_recordINS0_5fiberENS0_21basic_fixedsize_stackINS0_12stack_traitsEEERFS3_OS3_EE7destroyEPSA_:
.LFB3259:
	.loc 4 115 0
	.cfi_startproc
	pushq	%rbp
	.cfi_def_cfa_offset 16
	.cfi_offset 6, -16
	movq	%rsp, %rbp
	.cfi_def_cfa_register 6
	subq	$64, %rsp
	movq	%rdi, -56(%rbp)
	.loc 4 115 0
	movq	%fs:40, %rax
	movq	%rax, -8(%rbp)
	xorl	%eax, %eax
	.loc 4 116 0
	movq	-56(%rbp), %rax
	addq	$16, %rax
	movq	%rax, %rdi
	call	_ZSt4moveIRN5boost7context21basic_fixedsize_stackINS1_12stack_traitsEEEEONSt16remove_referenceIT_E4typeEOS7_
	movq	(%rax), %rax
	movq	%rax, -40(%rbp)
	.loc 4 117 0
	movq	-56(%rbp), %rax
	movq	8(%rax), %rdx
	movq	(%rax), %rax
	movq	%rax, -32(%rbp)
	movq	%rdx, -24(%rbp)
	.loc 4 121 0
	leaq	-32(%rbp), %rdx
	leaq	-40(%rbp), %rax
	movq	%rdx, %rsi
	movq	%rax, %rdi
	call	_ZN5boost7context21basic_fixedsize_stackINS0_12stack_traitsEE10deallocateERNS0_13stack_contextE
	.loc 4 122 0
	nop
	movq	-8(%rbp), %rax
	xorq	%fs:40, %rax
	je	.L91
	call	__stack_chk_fail@PLT
.L91:
	leave
	.cfi_def_cfa 7, 8
	ret
	.cfi_endproc
.LFE3259:
	.size	_ZN5boost7context6detail12fiber_recordINS0_5fiberENS0_21basic_fixedsize_stackINS0_12stack_traitsEEERFS3_OS3_EE7destroyEPSA_, .-_ZN5boost7context6detail12fiber_recordINS0_5fiberENS0_21basic_fixedsize_stackINS0_12stack_traitsEEERFS3_OS3_EE7destroyEPSA_
	.section	.rodata
	.align 8
.LC13:
	.string	"/usr/local/include/boost/context/fixedsize_stack.hpp"
.LC14:
	.string	"sctx.sp"
	.section	.text._ZN5boost7context21basic_fixedsize_stackINS0_12stack_traitsEE10deallocateERNS0_13stack_contextE,"axG",@progbits,_ZN5boost7context21basic_fixedsize_stackINS0_12stack_traitsEE10deallocateERNS0_13stack_contextE,comdat
	.align 2
	.weak	_ZN5boost7context21basic_fixedsize_stackINS0_12stack_traitsEE10deallocateERNS0_13stack_contextE
	.type	_ZN5boost7context21basic_fixedsize_stackINS0_12stack_traitsEE10deallocateERNS0_13stack_contextE, @function
_ZN5boost7context21basic_fixedsize_stackINS0_12stack_traitsEE10deallocateERNS0_13stack_contextE:
.LFB3261:
	.loc 8 58 0
	.cfi_startproc
	pushq	%rbp
	.cfi_def_cfa_offset 16
	.cfi_offset 6, -16
	movq	%rsp, %rbp
	.cfi_def_cfa_register 6
	subq	$32, %rsp
	movq	%rdi, -24(%rbp)
	movq	%rsi, -32(%rbp)
	.loc 8 59 0
	movq	-32(%rbp), %rax
	movq	8(%rax), %rax
	testq	%rax, %rax
	jne	.L93
	.loc 8 59 0 is_stmt 0 discriminator 1
	leaq	_ZZN5boost7context21basic_fixedsize_stackINS0_12stack_traitsEE10deallocateERNS0_13stack_contextEE19__PRETTY_FUNCTION__(%rip), %rcx
	movl	$59, %edx
	leaq	.LC13(%rip), %rsi
	leaq	.LC14(%rip), %rdi
	call	__assert_fail@PLT
.L93:
	.loc 8 64 0 is_stmt 1
	movq	-32(%rbp), %rax
	movq	8(%rax), %rdx
	movq	-32(%rbp), %rax
	movq	(%rax), %rax
	negq	%rax
	addq	%rdx, %rax
	movq	%rax, -8(%rbp)
	.loc 8 65 0
	movq	-8(%rbp), %rax
	movq	%rax, %rdi
	call	free@PLT
	.loc 8 66 0
	nop
	leave
	.cfi_def_cfa 7, 8
	ret
	.cfi_endproc
.LFE3261:
	.size	_ZN5boost7context21basic_fixedsize_stackINS0_12stack_traitsEE10deallocateERNS0_13stack_contextE, .-_ZN5boost7context21basic_fixedsize_stackINS0_12stack_traitsEE10deallocateERNS0_13stack_contextE
	.weak	_ZTIN5boost7context6detail13forced_unwindE
	.section	.data.rel.ro._ZTIN5boost7context6detail13forced_unwindE,"awG",@progbits,_ZTIN5boost7context6detail13forced_unwindE,comdat
	.align 8
	.type	_ZTIN5boost7context6detail13forced_unwindE, @object
	.size	_ZTIN5boost7context6detail13forced_unwindE, 16
_ZTIN5boost7context6detail13forced_unwindE:
	.quad	_ZTVN10__cxxabiv117__class_type_infoE+16
	.quad	_ZTSN5boost7context6detail13forced_unwindE
	.weak	_ZTSN5boost7context6detail13forced_unwindE
	.section	.rodata._ZTSN5boost7context6detail13forced_unwindE,"aG",@progbits,_ZTSN5boost7context6detail13forced_unwindE,comdat
	.align 32
	.type	_ZTSN5boost7context6detail13forced_unwindE, @object
	.size	_ZTSN5boost7context6detail13forced_unwindE, 39
_ZTSN5boost7context6detail13forced_unwindE:
	.string	"N5boost7context6detail13forced_unwindE"
	.text
	.type	_Z41__static_initialization_and_destruction_0ii, @function
_Z41__static_initialization_and_destruction_0ii:
.LFB3278:
	.loc 6 23 0
	.cfi_startproc
	pushq	%rbp
	.cfi_def_cfa_offset 16
	.cfi_offset 6, -16
	movq	%rsp, %rbp
	.cfi_def_cfa_register 6
	subq	$16, %rsp
	movl	%edi, -4(%rbp)
	movl	%esi, -8(%rbp)
	.loc 6 23 0
	cmpl	$1, -4(%rbp)
	jne	.L96
	.loc 6 23 0 is_stmt 0 discriminator 1
	cmpl	$65535, -8(%rbp)
	jne	.L96
	.file 10 "/usr/include/c++/7/iostream"
	.loc 10 74 0 is_stmt 1
	leaq	_ZStL8__ioinit(%rip), %rdi
	call	_ZNSt8ios_base4InitC1Ev@PLT
	leaq	__dso_handle(%rip), %rdx
	leaq	_ZStL8__ioinit(%rip), %rsi
	movq	_ZNSt8ios_base4InitD1Ev@GOTPCREL(%rip), %rax
	movq	%rax, %rdi
	call	__cxa_atexit@PLT
.L96:
	.loc 6 23 0
	nop
	leave
	.cfi_def_cfa 7, 8
	ret
	.cfi_endproc
.LFE3278:
	.size	_Z41__static_initialization_and_destruction_0ii, .-_Z41__static_initialization_and_destruction_0ii
	.type	_GLOBAL__sub_I__Z2f1ON5boost7context5fiberE, @function
_GLOBAL__sub_I__Z2f1ON5boost7context5fiberE:
.LFB3279:
	.loc 6 23 0
	.cfi_startproc
	pushq	%rbp
	.cfi_def_cfa_offset 16
	.cfi_offset 6, -16
	movq	%rsp, %rbp
	.cfi_def_cfa_register 6
	.loc 6 23 0
	movl	$65535, %esi
	movl	$1, %edi
	call	_Z41__static_initialization_and_destruction_0ii
	popq	%rbp
	.cfi_def_cfa 7, 8
	ret
	.cfi_endproc
.LFE3279:
	.size	_GLOBAL__sub_I__Z2f1ON5boost7context5fiberE, .-_GLOBAL__sub_I__Z2f1ON5boost7context5fiberE
	.section	.init_array,"aw"
	.align 8
	.quad	_GLOBAL__sub_I__Z2f1ON5boost7context5fiberE
	.section	.rodata
	.align 32
	.type	_ZZNO5boost7context5fiber6resumeEvE19__PRETTY_FUNCTION__, @object
	.size	_ZZNO5boost7context5fiber6resumeEvE19__PRETTY_FUNCTION__, 57
_ZZNO5boost7context5fiber6resumeEvE19__PRETTY_FUNCTION__:
	.string	"boost::context::fiber boost::context::fiber::resume() &&"
	.align 32
	.type	_ZZN5boost7context6detail13forced_unwindD4EvE19__PRETTY_FUNCTION__, @object
	.size	_ZZN5boost7context6detail13forced_unwindD4EvE19__PRETTY_FUNCTION__, 56
_ZZN5boost7context6detail13forced_unwindD4EvE19__PRETTY_FUNCTION__:
	.string	"boost::context::detail::forced_unwind::~forced_unwind()"
	.align 32
	.type	_ZZN5boost7context6detail13create_fiber1INS1_12fiber_recordINS0_5fiberENS0_21basic_fixedsize_stackINS0_12stack_traitsEEERFS4_OS4_EEES7_SA_EEPvOT0_OT1_E19__PRETTY_FUNCTION__, @object
	.size	_ZZN5boost7context6detail13create_fiber1INS1_12fiber_recordINS0_5fiberENS0_21basic_fixedsize_stackINS0_12stack_traitsEEERFS4_OS4_EEES7_SA_EEPvOT0_OT1_E19__PRETTY_FUNCTION__, 444
_ZZN5boost7context6detail13create_fiber1INS1_12fiber_recordINS0_5fiberENS0_21basic_fixedsize_stackINS0_12stack_traitsEEERFS4_OS4_EEES7_SA_EEPvOT0_OT1_E19__PRETTY_FUNCTION__:
	.ascii	"void* boost::context::detail::create_fiber1(StackAlloc&&, Fn"
	.ascii	"&&) [with Record = boost::context::detail::fiber_record<boos"
	.ascii	"t::context::fiber, boost::context::basic_fixedsize_stack<boo"
	.ascii	"st::con"
	.string	"text::stack_traits>, boost::context::fiber (&)(boost::context::fiber&&)>; StackAlloc = boost::context::basic_fixedsize_stack<boost::context::stack_traits>; Fn = boost::context::fiber (&)(boost::context::fiber&&); boost::context::detail::fcontext_t = void*]"
	.align 32
	.type	_ZZN5boost7context6detail11fiber_entryINS1_12fiber_recordINS0_5fiberENS0_21basic_fixedsize_stackINS0_12stack_traitsEEERFS4_OS4_EEEEEvNS1_10transfer_tEE19__PRETTY_FUNCTION__, @object
	.size	_ZZN5boost7context6detail11fiber_entryINS1_12fiber_recordINS0_5fiberENS0_21basic_fixedsize_stackINS0_12stack_traitsEEERFS4_OS4_EEEEEvNS1_10transfer_tEE19__PRETTY_FUNCTION__, 271
_ZZN5boost7context6detail11fiber_entryINS1_12fiber_recordINS0_5fiberENS0_21basic_fixedsize_stackINS0_12stack_traitsEEERFS4_OS4_EEEEEvNS1_10transfer_tEE19__PRETTY_FUNCTION__:
	.ascii	"void boost::co"
	.string	"ntext::detail::fiber_entry(boost::context::detail::transfer_t) [with Rec = boost::context::detail::fiber_record<boost::context::fiber, boost::context::basic_fixedsize_stack<boost::context::stack_traits>, boost::context::fiber (&)(boost::context::fiber&&)>]"
	.align 32
	.type	_ZZN5boost7context21basic_fixedsize_stackINS0_12stack_traitsEE10deallocateERNS0_13stack_contextEE19__PRETTY_FUNCTION__, @object
	.size	_ZZN5boost7context21basic_fixedsize_stackINS0_12stack_traitsEE10deallocateERNS0_13stack_contextEE19__PRETTY_FUNCTION__, 142
_ZZN5boost7context21basic_fixedsize_stackINS0_12stack_traitsEE10deallocateERNS0_13stack_contextEE19__PRETTY_FUNCTION__:
	.string	"void boost::context::basic_fixedsize_stack<traitsT>::deallocate(boost::context::stack_context&) [with traitsT = boost::context::stack_traits]"
	.text
.Letext0:
	.file 11 "/usr/include/c++/7/cstdlib"
	.file 12 "/usr/include/c++/7/cwchar"
	.file 13 "/usr/include/c++/7/bits/exception_ptr.h"
	.file 14 "/usr/include/c++/7/type_traits"
	.file 15 "/usr/include/x86_64-linux-gnu/c++/7/bits/c++config.h"
	.file 16 "/usr/include/c++/7/bits/cpp_type_traits.h"
	.file 17 "/usr/include/c++/7/bits/stl_pair.h"
	.file 18 "/usr/include/c++/7/debug/debug.h"
	.file 19 "/usr/include/c++/7/bits/char_traits.h"
	.file 20 "/usr/include/c++/7/cstdint"
	.file 21 "/usr/include/c++/7/clocale"
	.file 22 "/usr/include/c++/7/cstdio"
	.file 23 "/usr/include/c++/7/system_error"
	.file 24 "/usr/include/c++/7/bits/ios_base.h"
	.file 25 "/usr/include/c++/7/cwctype"
	.file 26 "/usr/include/c++/7/iosfwd"
	.file 27 "/usr/include/c++/7/cstddef"
	.file 28 "/usr/include/c++/7/bits/algorithmfwd.h"
	.file 29 "/usr/include/c++/7/bits/stl_algo.h"
	.file 30 "/usr/include/c++/7/bits/uses_allocator.h"
	.file 31 "/usr/include/c++/7/bits/stl_iterator_base_types.h"
	.file 32 "/usr/include/c++/7/tuple"
	.file 33 "/usr/include/c++/7/functional"
	.file 34 "/usr/include/c++/7/bits/shared_ptr_base.h"
	.file 35 "/usr/include/c++/7/bits/predefined_ops.h"
	.file 36 "/usr/include/c++/7/ext/new_allocator.h"
	.file 37 "/usr/include/c++/7/ext/numeric_traits.h"
	.file 38 "/usr/include/c++/7/bits/atomic_base.h"
	.file 39 "/usr/include/c++/7/ext/concurrence.h"
	.file 40 "/usr/lib/gcc/x86_64-linux-gnu/7/include/stddef.h"
	.file 41 "/usr/include/stdlib.h"
	.file 42 "/usr/include/x86_64-linux-gnu/bits/types.h"
	.file 43 "/usr/include/x86_64-linux-gnu/bits/stdint-intn.h"
	.file 44 "<built-in>"
	.file 45 "/usr/include/x86_64-linux-gnu/bits/types/wint_t.h"
	.file 46 "/usr/include/x86_64-linux-gnu/bits/types/__mbstate_t.h"
	.file 47 "/usr/include/x86_64-linux-gnu/bits/types/mbstate_t.h"
	.file 48 "/usr/include/x86_64-linux-gnu/bits/types/__FILE.h"
	.file 49 "/usr/include/x86_64-linux-gnu/bits/libio.h"
	.file 50 "/usr/include/x86_64-linux-gnu/bits/types/FILE.h"
	.file 51 "/usr/include/wchar.h"
	.file 52 "/usr/include/x86_64-linux-gnu/bits/types/struct_tm.h"
	.file 53 "/usr/include/x86_64-linux-gnu/bits/stdint-uintn.h"
	.file 54 "/usr/include/stdint.h"
	.file 55 "/usr/include/locale.h"
	.file 56 "/usr/include/time.h"
	.file 57 "/usr/include/x86_64-linux-gnu/c++/7/bits/atomic_word.h"
	.file 58 "/usr/include/x86_64-linux-gnu/bits/_G_config.h"
	.file 59 "/usr/include/stdio.h"
	.file 60 "/usr/include/x86_64-linux-gnu/bits/sys_errlist.h"
	.file 61 "/usr/include/errno.h"
	.file 62 "/usr/include/x86_64-linux-gnu/bits/wctype-wchar.h"
	.file 63 "/usr/include/wctype.h"
	.file 64 "/usr/include/unistd.h"
	.file 65 "/usr/include/x86_64-linux-gnu/bits/confname.h"
	.file 66 "/usr/include/x86_64-linux-gnu/bits/getopt_core.h"
	.file 67 "/usr/local/include/boost/context/detail/config.hpp"
	.file 68 "/usr/local/include/boost/config/detail/suffix.hpp"
	.file 69 "/usr/local/include/boost/smart_ptr/detail/sp_convertible.hpp"
	.file 70 "/usr/local/include/boost/cstdint.hpp"
	.file 71 "/usr/local/include/boost/context/detail/fcontext.hpp"
	.file 72 "/usr/local/include/boost/context/stack_context.hpp"
	.file 73 "/usr/local/include/boost/context/stack_traits.hpp"
	.file 74 "/usr/local/include/boost/context/flags.hpp"
	.section	.data.rel.local.DW.ref._ZTIN5boost7context6detail13forced_unwindE,"awG",@progbits,DW.ref._ZTIN5boost7context6detail13forced_unwindE,comdat
	.align 8
	.type	DW.ref._ZTIN5boost7context6detail13forced_unwindE, @object
	.size	DW.ref._ZTIN5boost7context6detail13forced_unwindE, 8
DW.ref._ZTIN5boost7context6detail13forced_unwindE:
	.quad	_ZTIN5boost7context6detail13forced_unwindE
	.hidden	DW.ref.__gxx_personality_v0
	.weak	DW.ref.__gxx_personality_v0
	.section	.data.rel.local.DW.ref.__gxx_personality_v0,"awG",@progbits,DW.ref.__gxx_personality_v0,comdat
	.align 8
	.type	DW.ref.__gxx_personality_v0, @object
	.size	DW.ref.__gxx_personality_v0, 8
DW.ref.__gxx_personality_v0:
	.quad	__gxx_personality_v0
	.hidden	__dso_handle
	.ident	"GCC: (Ubuntu 7.4.0-1ubuntu1~18.04) 7.4.0"
	.section	.note.GNU-stack,"",@progbits
